Component: ARM Compiler 5.06 update 3 (build 300) Tool: armlink [4d35c9]

==============================================================================

Section Cross References

    main.o(i.main) refers to main.o(i._Z8Delay_Msj) for Delay_Ms(unsigned)
    main.o(i.main) refers to rtclock.o(i._ZN7RTCLOCK4InitEv) for RTCLOCK::Init()
    main.o(i.main) refers to cbus.o(i._ZN4CBUS4InitEv) for CBUS::Init()
    main.o(i.main) refers to ibus.o(i._ZN4IBUS4InitEv) for IBUS::Init()
    main.o(i.main) refers to abus.o(i._ZN4ABUS4InitEv) for ABUS::Init()
    main.o(i.main) refers to automate.o(i._ZN8AUTOMATE4InitEv) for AUTOMATE::Init()
    main.o(i.main) refers to shell.o(i._ZN5SHELL4InitEv) for SHELL::Init()
    main.o(i.main) refers to interpreter.o(i._ZN11INTERPRETER4InitEv) for INTERPRETER::Init()
    main.o(i.main) refers to automate.o(i._ZN8AUTOMATE8CheckingEh) for AUTOMATE::Checking(unsigned char)
    main.o(i.main) refers to rtclock.o(.data) for RTClock
    main.o(i.main) refers to cbus.o(.bss) for Cbus
    main.o(i.main) refers to ibus.o(.bss) for Ibus
    main.o(i.main) refers to abus.o(.bss) for Abus
    main.o(i.main) refers to automate.o(.bss) for Automate
    main.o(i.main) refers to shell.o(.bss) for Shell
    main.o(i.main) refers to interpreter.o(.bss) for Interpreter
    main.o(.ARM.exidx) refers to main.o(i._Z8Delay_Msj) for i._Z8Delay_Msj
    main.o(.ARM.exidx) refers to main.o(i.main) for i.main
    automate.o(i.TIM3_IRQHandler) refers to automate.o(i._ZN8AUTOMATE10ClickCountEv) for AUTOMATE::ClickCount()
    automate.o(i.TIM3_IRQHandler) refers to automate.o(i._ZN8AUTOMATE20InfoLCDRefreashCountEv) for AUTOMATE::InfoLCDRefreashCount()
    automate.o(i.TIM3_IRQHandler) refers to automate.o(i._ZN8AUTOMATE18TCONGetStatusCountEv) for AUTOMATE::TCONGetStatusCount()
    automate.o(i.TIM3_IRQHandler) refers to automate.o(i._ZN8AUTOMATE18SCONGetStatusCountEv) for AUTOMATE::SCONGetStatusCount()
    automate.o(i.TIM3_IRQHandler) refers to automate.o(i._ZN8AUTOMATE18FCONGetStatusCountEv) for AUTOMATE::FCONGetStatusCount()
    automate.o(i.TIM3_IRQHandler) refers to automate.o(i._ZN8AUTOMATE22ConsoleGetCommandCountEv) for AUTOMATE::ConsoleGetCommandCount()
    automate.o(i.TIM3_IRQHandler) refers to automate.o(i._ZN8AUTOMATE18AUX1GetStatusCountEv) for AUTOMATE::AUX1GetStatusCount()
    automate.o(i.TIM3_IRQHandler) refers to automate.o(i._ZN8AUTOMATE17RTCGetStatusCountEv) for AUTOMATE::RTCGetStatusCount()
    automate.o(i.TIM3_IRQHandler) refers to automate.o(i._ZN8AUTOMATE21InterpreterRoundCountEv) for AUTOMATE::InterpreterRoundCount()
    automate.o(i.TIM3_IRQHandler) refers to automate.o(.bss) for Automate
    automate.o(i._ZN8AUTOMATE10ClickCountEv) refers to interpreter.o(i._ZN11INTERPRETER4TickEv) for INTERPRETER::Tick()
    automate.o(i._ZN8AUTOMATE10ClickCountEv) refers to interpreter.o(.bss) for Interpreter
    automate.o(i._ZN8AUTOMATE12RTCGetStatusEv) refers to rtclock.o(i._ZN7RTCLOCK7GetTimeEv) for RTCLOCK::GetTime()
    automate.o(i._ZN8AUTOMATE12RTCGetStatusEv) refers to rtclock.o(.data) for RTClock
    automate.o(i._ZN8AUTOMATE13AUX1GetStatusEv) refers to auxio.o(i._ZN5AUXIO8TestLinkEv) for AUXIO::TestLink()
    automate.o(i._ZN8AUTOMATE13AUX1GetStatusEv) refers to auxio.o(i._ZN5AUXIO18GetStatusMaterialAEv) for AUXIO::GetStatusMaterialA()
    automate.o(i._ZN8AUTOMATE13AUX1GetStatusEv) refers to auxio.o(i._ZN5AUXIO18GetStatusMaterialBEv) for AUXIO::GetStatusMaterialB()
    automate.o(i._ZN8AUTOMATE13AUX1GetStatusEv) refers to auxio.o(.data) for AuxIO
    automate.o(i._ZN8AUTOMATE13AUX1GetStatusEv) refers to status.o(.bss) for Status
    automate.o(i._ZN8AUTOMATE13FCONGetStatusEv) refers to fconi.o(i._ZN5FCONI8TestLinkEv) for FCONI::TestLink()
    automate.o(i._ZN8AUTOMATE13FCONGetStatusEv) refers to fconi.o(i._ZN5FCONI8FileTestEv) for FCONI::FileTest()
    automate.o(i._ZN8AUTOMATE13FCONGetStatusEv) refers to fconi.o(i._ZN5FCONI14GetTotalVolumeEv) for FCONI::GetTotalVolume()
    automate.o(i._ZN8AUTOMATE13FCONGetStatusEv) refers to fconi.o(i._ZN5FCONI13GetRestVolumeEv) for FCONI::GetRestVolume()
    automate.o(i._ZN8AUTOMATE13FCONGetStatusEv) refers to fconi.o(i._ZN5FCONI11GetFileNameEv) for FCONI::GetFileName()
    automate.o(i._ZN8AUTOMATE13FCONGetStatusEv) refers to fconi.o(i._ZN5FCONI11GetFileSizeEv) for FCONI::GetFileSize()
    automate.o(i._ZN8AUTOMATE13FCONGetStatusEv) refers to fconi.o(i._ZN5FCONI20GetFileCommandNumberEv) for FCONI::GetFileCommandNumber()
    automate.o(i._ZN8AUTOMATE13FCONGetStatusEv) refers to fconi.o(i._ZN5FCONI19GetFileEstimateTimeEv) for FCONI::GetFileEstimateTime()
    automate.o(i._ZN8AUTOMATE13FCONGetStatusEv) refers to fconi.o(i._ZN5FCONI20GetFileTotalDistanceEv) for FCONI::GetFileTotalDistance()
    automate.o(i._ZN8AUTOMATE13FCONGetStatusEv) refers to fconi.o(i._ZN5FCONI12GetFileInfo1Ev) for FCONI::GetFileInfo1()
    automate.o(i._ZN8AUTOMATE13FCONGetStatusEv) refers to fconi.o(i._ZN5FCONI12GetFileInfo2Ev) for FCONI::GetFileInfo2()
    automate.o(i._ZN8AUTOMATE13FCONGetStatusEv) refers to fconi.o(i._ZN5FCONI12GetFileInfo3Ev) for FCONI::GetFileInfo3()
    automate.o(i._ZN8AUTOMATE13FCONGetStatusEv) refers to fconi.o(i._ZN5FCONI12GetFileInfo4Ev) for FCONI::GetFileInfo4()
    automate.o(i._ZN8AUTOMATE13FCONGetStatusEv) refers to fconi.o(i._ZN5FCONI12GetFileInfo5Ev) for FCONI::GetFileInfo5()
    automate.o(i._ZN8AUTOMATE13FCONGetStatusEv) refers to fconi.o(i._ZN5FCONI12GetFileInfo6Ev) for FCONI::GetFileInfo6()
    automate.o(i._ZN8AUTOMATE13FCONGetStatusEv) refers to fconi.o(i._ZN5FCONI14GetFilePointerEv) for FCONI::GetFilePointer()
    automate.o(i._ZN8AUTOMATE13FCONGetStatusEv) refers to fconi.o(.data) for Fconi
    automate.o(i._ZN8AUTOMATE13FCONGetStatusEv) refers to status.o(.bss) for Status
    automate.o(i._ZN8AUTOMATE13SCONGetStatusEv) refers to sconi.o(i._ZN5SCONI8TestLinkEv) for SCONI::TestLink()
    automate.o(i._ZN8AUTOMATE13SCONGetStatusEv) refers to sconi.o(i._ZN5SCONI12GetPositionXEv) for SCONI::GetPositionX()
    automate.o(i._ZN8AUTOMATE13SCONGetStatusEv) refers to sconi.o(i._ZN5SCONI12GetPositionYEv) for SCONI::GetPositionY()
    automate.o(i._ZN8AUTOMATE13SCONGetStatusEv) refers to sconi.o(i._ZN5SCONI12GetPositionZEv) for SCONI::GetPositionZ()
    automate.o(i._ZN8AUTOMATE13SCONGetStatusEv) refers to sconi.o(i._ZN5SCONI12GetPositionAEv) for SCONI::GetPositionA()
    automate.o(i._ZN8AUTOMATE13SCONGetStatusEv) refers to sconi.o(i._ZN5SCONI12GetPositionBEv) for SCONI::GetPositionB()
    automate.o(i._ZN8AUTOMATE13SCONGetStatusEv) refers to sconi.o(i._ZN5SCONI15GetPositionXMaxEv) for SCONI::GetPositionXMax()
    automate.o(i._ZN8AUTOMATE13SCONGetStatusEv) refers to sconi.o(i._ZN5SCONI15GetPositionYMaxEv) for SCONI::GetPositionYMax()
    automate.o(i._ZN8AUTOMATE13SCONGetStatusEv) refers to sconi.o(i._ZN5SCONI15GetPositionZMaxEv) for SCONI::GetPositionZMax()
    automate.o(i._ZN8AUTOMATE13SCONGetStatusEv) refers to sconi.o(i._ZN5SCONI11GetStatusFAEv) for SCONI::GetStatusFA()
    automate.o(i._ZN8AUTOMATE13SCONGetStatusEv) refers to sconi.o(i._ZN5SCONI12GetStatusIDPEv) for SCONI::GetStatusIDP()
    automate.o(i._ZN8AUTOMATE13SCONGetStatusEv) refers to sconi.o(i._ZN5SCONI16GetStatusStepperEv) for SCONI::GetStatusStepper()
    automate.o(i._ZN8AUTOMATE13SCONGetStatusEv) refers to sconi.o(i._ZN5SCONI14GetStatusHomedEv) for SCONI::GetStatusHomed()
    automate.o(i._ZN8AUTOMATE13SCONGetStatusEv) refers to sconi.o(i._ZN5SCONI9GetL1RestEv) for SCONI::GetL1Rest()
    automate.o(i._ZN8AUTOMATE13SCONGetStatusEv) refers to sconi.o(i._ZN5SCONI9GetL2RestEv) for SCONI::GetL2Rest()
    automate.o(i._ZN8AUTOMATE13SCONGetStatusEv) refers to sconi.o(i._ZN5SCONI8GetL1MaxEv) for SCONI::GetL1Max()
    automate.o(i._ZN8AUTOMATE13SCONGetStatusEv) refers to sconi.o(i._ZN5SCONI8GetL2MaxEv) for SCONI::GetL2Max()
    automate.o(i._ZN8AUTOMATE13SCONGetStatusEv) refers to sconi.o(.data) for Sconi
    automate.o(i._ZN8AUTOMATE13SCONGetStatusEv) refers to status.o(.bss) for Status
    automate.o(i._ZN8AUTOMATE13TCONGetStatusEv) refers to tconi.o(i._ZN5TCONI8TestLinkEv) for TCONI::TestLink()
    automate.o(i._ZN8AUTOMATE13TCONGetStatusEv) refers to tconi.o(i._ZN5TCONI23GetTemperatureExtruderAEv) for TCONI::GetTemperatureExtruderA()
    automate.o(i._ZN8AUTOMATE13TCONGetStatusEv) refers to tconi.o(i._ZN5TCONI23GetTemperatureExtruderBEv) for TCONI::GetTemperatureExtruderB()
    automate.o(i._ZN8AUTOMATE13TCONGetStatusEv) refers to tconi.o(i._ZN5TCONI23GetTemperatureBasePlaneEv) for TCONI::GetTemperatureBasePlane()
    automate.o(i._ZN8AUTOMATE13TCONGetStatusEv) refers to tconi.o(i._ZN5TCONI25GetTemperatureEnvironmentEv) for TCONI::GetTemperatureEnvironment()
    automate.o(i._ZN8AUTOMATE13TCONGetStatusEv) refers to tconi.o(i._ZN5TCONI23GetTemperatureEASettingEv) for TCONI::GetTemperatureEASetting()
    automate.o(i._ZN8AUTOMATE13TCONGetStatusEv) refers to tconi.o(i._ZN5TCONI23GetTemperatureEBSettingEv) for TCONI::GetTemperatureEBSetting()
    automate.o(i._ZN8AUTOMATE13TCONGetStatusEv) refers to tconi.o(i._ZN5TCONI23GetTemperatureBPSettingEv) for TCONI::GetTemperatureBPSetting()
    automate.o(i._ZN8AUTOMATE13TCONGetStatusEv) refers to tconi.o(i._ZN5TCONI23GetCoolerPowerExtruderAEv) for TCONI::GetCoolerPowerExtruderA()
    automate.o(i._ZN8AUTOMATE13TCONGetStatusEv) refers to tconi.o(i._ZN5TCONI23GetCoolerPowerExtruderBEv) for TCONI::GetCoolerPowerExtruderB()
    automate.o(i._ZN8AUTOMATE13TCONGetStatusEv) refers to tconi.o(i._ZN5TCONI23GetHeaterPowerExtruderAEv) for TCONI::GetHeaterPowerExtruderA()
    automate.o(i._ZN8AUTOMATE13TCONGetStatusEv) refers to tconi.o(i._ZN5TCONI23GetHeaterPowerExtruderBEv) for TCONI::GetHeaterPowerExtruderB()
    automate.o(i._ZN8AUTOMATE13TCONGetStatusEv) refers to tconi.o(i._ZN5TCONI23GetHeaterPowerBasePlaneEv) for TCONI::GetHeaterPowerBasePlane()
    automate.o(i._ZN8AUTOMATE13TCONGetStatusEv) refers to tconi.o(i._ZN5TCONI18GetStatusExtruderAEv) for TCONI::GetStatusExtruderA()
    automate.o(i._ZN8AUTOMATE13TCONGetStatusEv) refers to tconi.o(i._ZN5TCONI18GetStatusExtruderBEv) for TCONI::GetStatusExtruderB()
    automate.o(i._ZN8AUTOMATE13TCONGetStatusEv) refers to tconi.o(i._ZN5TCONI18GetStatusBasePlaneEv) for TCONI::GetStatusBasePlane()
    automate.o(i._ZN8AUTOMATE13TCONGetStatusEv) refers to tconi.o(.data) for Tconi
    automate.o(i._ZN8AUTOMATE13TCONGetStatusEv) refers to status.o(.bss) for Status
    automate.o(i._ZN8AUTOMATE15InfoLCDRefreashEv) refers to cconi.o(i._ZN5CCONI8TestLinkEv) for CCONI::TestLink()
    automate.o(i._ZN8AUTOMATE15InfoLCDRefreashEv) refers to cconi.o(i._ZN5CCONI13SetInfoScreenEv) for CCONI::SetInfoScreen()
    automate.o(i._ZN8AUTOMATE15InfoLCDRefreashEv) refers to automate.o(i._ZN8AUTOMATE16StatusBarRefreshEv) for AUTOMATE::StatusBarRefresh()
    automate.o(i._ZN8AUTOMATE15InfoLCDRefreashEv) refers to cconi.o(.data) for Cconi
    automate.o(i._ZN8AUTOMATE15InfoLCDRefreashEv) refers to status.o(.bss) for Status
    automate.o(i._ZN8AUTOMATE16InterpreterRoundEv) refers to interpreter.o(i._ZN11INTERPRETER5RoundEv) for INTERPRETER::Round()
    automate.o(i._ZN8AUTOMATE16InterpreterRoundEv) refers to interpreter.o(.bss) for Interpreter
    automate.o(i._ZN8AUTOMATE16StatusBarRefreshEv) refers to cconi.o(i._ZN5CCONI12SetStatusBarEv) for CCONI::SetStatusBar()
    automate.o(i._ZN8AUTOMATE16StatusBarRefreshEv) refers to status.o(.bss) for Status
    automate.o(i._ZN8AUTOMATE16StatusBarRefreshEv) refers to automate.o(.data) for OFFSET_LINK
    automate.o(i._ZN8AUTOMATE16StatusBarRefreshEv) refers to interpreter.o(.bss) for Interpreter
    automate.o(i._ZN8AUTOMATE16StatusBarRefreshEv) refers to cconi.o(.data) for Cconi
    automate.o(i._ZN8AUTOMATE17ConsoleGetCommandEv) refers to cconi.o(i._ZN5CCONI8TestLinkEv) for CCONI::TestLink()
    automate.o(i._ZN8AUTOMATE17ConsoleGetCommandEv) refers to cconi.o(i._ZN5CCONI10GetCommandEv) for CCONI::GetCommand()
    automate.o(i._ZN8AUTOMATE17ConsoleGetCommandEv) refers to shell.o(i._ZN5SHELL7DecoderEv) for SHELL::Decoder()
    automate.o(i._ZN8AUTOMATE17ConsoleGetCommandEv) refers to cconi.o(.data) for Cconi
    automate.o(i._ZN8AUTOMATE17ConsoleGetCommandEv) refers to shell.o(.bss) for Shell
    automate.o(i._ZN8AUTOMATE17ConsoleGetCommandEv) refers to status.o(.bss) for Status
    automate.o(i._ZN8AUTOMATE8CheckingEh) refers to automate.o(i._ZN8AUTOMATE15InfoLCDRefreashEv) for AUTOMATE::InfoLCDRefreash()
    automate.o(i._ZN8AUTOMATE8CheckingEh) refers to automate.o(i._ZN8AUTOMATE13TCONGetStatusEv) for AUTOMATE::TCONGetStatus()
    automate.o(i._ZN8AUTOMATE8CheckingEh) refers to automate.o(i._ZN8AUTOMATE13SCONGetStatusEv) for AUTOMATE::SCONGetStatus()
    automate.o(i._ZN8AUTOMATE8CheckingEh) refers to automate.o(i._ZN8AUTOMATE17ConsoleGetCommandEv) for AUTOMATE::ConsoleGetCommand()
    automate.o(i._ZN8AUTOMATE8CheckingEh) refers to automate.o(i._ZN8AUTOMATE13AUX1GetStatusEv) for AUTOMATE::AUX1GetStatus()
    automate.o(i._ZN8AUTOMATE8CheckingEh) refers to automate.o(i._ZN8AUTOMATE13FCONGetStatusEv) for AUTOMATE::FCONGetStatus()
    automate.o(i._ZN8AUTOMATE8CheckingEh) refers to automate.o(i._ZN8AUTOMATE16InterpreterRoundEv) for AUTOMATE::InterpreterRound()
    automate.o(.ARM.exidx) refers to automate.o(i._ZN8AUTOMATE21InterpreterRoundCountEv) for i._ZN8AUTOMATE21InterpreterRoundCountEv
    automate.o(.ARM.exidx) refers to automate.o(i._ZN8AUTOMATE17RTCGetStatusCountEv) for i._ZN8AUTOMATE17RTCGetStatusCountEv
    automate.o(.ARM.exidx) refers to automate.o(i._ZN8AUTOMATE18AUX1GetStatusCountEv) for i._ZN8AUTOMATE18AUX1GetStatusCountEv
    automate.o(.ARM.exidx) refers to automate.o(i._ZN8AUTOMATE22ConsoleGetCommandCountEv) for i._ZN8AUTOMATE22ConsoleGetCommandCountEv
    automate.o(.ARM.exidx) refers to automate.o(i._ZN8AUTOMATE18FCONGetStatusCountEv) for i._ZN8AUTOMATE18FCONGetStatusCountEv
    automate.o(.ARM.exidx) refers to automate.o(i._ZN8AUTOMATE18SCONGetStatusCountEv) for i._ZN8AUTOMATE18SCONGetStatusCountEv
    automate.o(.ARM.exidx) refers to automate.o(i._ZN8AUTOMATE18TCONGetStatusCountEv) for i._ZN8AUTOMATE18TCONGetStatusCountEv
    automate.o(.ARM.exidx) refers to automate.o(i._ZN8AUTOMATE20InfoLCDRefreashCountEv) for i._ZN8AUTOMATE20InfoLCDRefreashCountEv
    automate.o(.ARM.exidx) refers to automate.o(i._ZN8AUTOMATE10ClickCountEv) for i._ZN8AUTOMATE10ClickCountEv
    automate.o(.ARM.exidx) refers to automate.o(i.TIM3_IRQHandler) for i.TIM3_IRQHandler
    automate.o(.ARM.exidx) refers to automate.o(i._ZN8AUTOMATE4InitEv) for i._ZN8AUTOMATE4InitEv
    automate.o(.ARM.exidx) refers to automate.o(i._ZN8AUTOMATE16InterpreterRoundEv) for i._ZN8AUTOMATE16InterpreterRoundEv
    automate.o(.ARM.exidx) refers to automate.o(i._ZN8AUTOMATE13FCONGetStatusEv) for i._ZN8AUTOMATE13FCONGetStatusEv
    automate.o(.ARM.exidx) refers to automate.o(i._ZN8AUTOMATE13AUX1GetStatusEv) for i._ZN8AUTOMATE13AUX1GetStatusEv
    automate.o(.ARM.exidx) refers to automate.o(i._ZN8AUTOMATE17ConsoleGetCommandEv) for i._ZN8AUTOMATE17ConsoleGetCommandEv
    automate.o(.ARM.exidx) refers to automate.o(i._ZN8AUTOMATE13SCONGetStatusEv) for i._ZN8AUTOMATE13SCONGetStatusEv
    automate.o(.ARM.exidx) refers to automate.o(i._ZN8AUTOMATE13TCONGetStatusEv) for i._ZN8AUTOMATE13TCONGetStatusEv
    automate.o(.ARM.exidx) refers to automate.o(i._ZN8AUTOMATE16StatusBarRefreshEv) for i._ZN8AUTOMATE16StatusBarRefreshEv
    automate.o(.ARM.exidx) refers to automate.o(i._ZN8AUTOMATE15InfoLCDRefreashEv) for i._ZN8AUTOMATE15InfoLCDRefreashEv
    automate.o(.ARM.exidx) refers to automate.o(i._ZN8AUTOMATE8CheckingEh) for i._ZN8AUTOMATE8CheckingEh
    automate.o(.ARM.exidx) refers to automate.o(i._ZN8AUTOMATE12RTCGetStatusEv) for i._ZN8AUTOMATE12RTCGetStatusEv
    cbus.o(i.USART3_IRQHandler) refers to cbus.o(.bss) for Cbus
    cbus.o(i._ZN4CBUS5PrintEPc) refers to cbus.o(i._ZN4CBUS2TxEh) for CBUS::Tx(unsigned char)
    cbus.o(i._ZN4CBUS8TransmitEcPcj) refers to cbus.o(i._ZN4CBUS2TxEh) for CBUS::Tx(unsigned char)
    cbus.o(i._ZN4CBUS8TransmitEcPcj) refers to cbus.o(i._ZN4CBUS5PrintEPc) for CBUS::Print(char*)
    cbus.o(i._ZN4CBUS8TransmitEcPcj) refers to cbus.o(i._ZN4CBUS14WaitForReceiveEj) for CBUS::WaitForReceive(unsigned)
    cbus.o(.ARM.exidx) refers to cbus.o(i.USART3_IRQHandler) for i.USART3_IRQHandler
    cbus.o(.ARM.exidx) refers to cbus.o(i._ZN4CBUS4InitEv) for i._ZN4CBUS4InitEv
    cbus.o(.ARM.exidx) refers to cbus.o(i._ZN4CBUS14WaitForReceiveEj) for i._ZN4CBUS14WaitForReceiveEj
    cbus.o(.ARM.exidx) refers to cbus.o(i._ZN4CBUS2TxEh) for i._ZN4CBUS2TxEh
    cbus.o(.ARM.exidx) refers to cbus.o(i._ZN4CBUS5PrintEPc) for i._ZN4CBUS5PrintEPc
    cbus.o(.ARM.exidx) refers to cbus.o(i._ZN4CBUS8TransmitEcPcj) for i._ZN4CBUS8TransmitEcPcj
    cbus.o(.ARM.exidx) refers to cbus.o(i._ZN4CBUS9TestReplyEc) for i._ZN4CBUS9TestReplyEc
    cbus.o(.ARM.exidx) refers to cbus.o(i._ZN4CBUS17TestIfVerifyErrorEv) for i._ZN4CBUS17TestIfVerifyErrorEv
    sconi.o(i._ZN5SCONI10AutoHomingEv) refers to cbus.o(i._ZN4CBUS8TransmitEcPcj) for CBUS::Transmit(char, char*, unsigned)
    sconi.o(i._ZN5SCONI10AutoHomingEv) refers to cbus.o(i._ZN4CBUS9TestReplyEc) for CBUS::TestReply(char)
    sconi.o(i._ZN5SCONI10AutoHomingEv) refers to cbus.o(.bss) for Cbus
    sconi.o(i._ZN5SCONI10DisableIDPEv) refers to cbus.o(i._ZN4CBUS8TransmitEcPcj) for CBUS::Transmit(char, char*, unsigned)
    sconi.o(i._ZN5SCONI10DisableIDPEv) refers to cbus.o(i._ZN4CBUS9TestReplyEc) for CBUS::TestReply(char)
    sconi.o(i._ZN5SCONI10DisableIDPEv) refers to cbus.o(.bss) for Cbus
    sconi.o(i._ZN5SCONI11GetStatusFAEv) refers to cbus.o(i._ZN4CBUS8TransmitEcPcj) for CBUS::Transmit(char, char*, unsigned)
    sconi.o(i._ZN5SCONI11GetStatusFAEv) refers to cbus.o(i._ZN4CBUS9TestReplyEc) for CBUS::TestReply(char)
    sconi.o(i._ZN5SCONI11GetStatusFAEv) refers to cbus.o(i._ZN4CBUS17TestIfVerifyErrorEv) for CBUS::TestIfVerifyError()
    sconi.o(i._ZN5SCONI11GetStatusFAEv) refers to cbus.o(.bss) for Cbus
    sconi.o(i._ZN5SCONI11GetStatusFAEv) refers to status.o(.bss) for Status
    sconi.o(i._ZN5SCONI11SetPositionEdc) refers to sconi.o(i._ZN5SCONI7Flo2ChrEPcdjjb) for SCONI::Flo2Chr(char*, double, unsigned, unsigned, bool)
    sconi.o(i._ZN5SCONI11SetPositionEdc) refers to cbus.o(i._ZN4CBUS8TransmitEcPcj) for CBUS::Transmit(char, char*, unsigned)
    sconi.o(i._ZN5SCONI11SetPositionEdc) refers to cbus.o(i._ZN4CBUS9TestReplyEc) for CBUS::TestReply(char)
    sconi.o(i._ZN5SCONI11SetPositionEdc) refers to cbus.o(.bss) for Cbus
    sconi.o(i._ZN5SCONI12GetPositionAEv) refers to cbus.o(i._ZN4CBUS8TransmitEcPcj) for CBUS::Transmit(char, char*, unsigned)
    sconi.o(i._ZN5SCONI12GetPositionAEv) refers to cbus.o(i._ZN4CBUS9TestReplyEc) for CBUS::TestReply(char)
    sconi.o(i._ZN5SCONI12GetPositionAEv) refers to cbus.o(i._ZN4CBUS17TestIfVerifyErrorEv) for CBUS::TestIfVerifyError()
    sconi.o(i._ZN5SCONI12GetPositionAEv) refers to sconi.o(i._ZN5SCONI7Chr2FloEPcjjb) for SCONI::Chr2Flo(char*, unsigned, unsigned, bool)
    sconi.o(i._ZN5SCONI12GetPositionAEv) refers to cbus.o(.bss) for Cbus
    sconi.o(i._ZN5SCONI12GetPositionAEv) refers to status.o(.bss) for Status
    sconi.o(i._ZN5SCONI12GetPositionBEv) refers to cbus.o(i._ZN4CBUS8TransmitEcPcj) for CBUS::Transmit(char, char*, unsigned)
    sconi.o(i._ZN5SCONI12GetPositionBEv) refers to cbus.o(i._ZN4CBUS9TestReplyEc) for CBUS::TestReply(char)
    sconi.o(i._ZN5SCONI12GetPositionBEv) refers to cbus.o(i._ZN4CBUS17TestIfVerifyErrorEv) for CBUS::TestIfVerifyError()
    sconi.o(i._ZN5SCONI12GetPositionBEv) refers to sconi.o(i._ZN5SCONI7Chr2FloEPcjjb) for SCONI::Chr2Flo(char*, unsigned, unsigned, bool)
    sconi.o(i._ZN5SCONI12GetPositionBEv) refers to cbus.o(.bss) for Cbus
    sconi.o(i._ZN5SCONI12GetPositionBEv) refers to status.o(.bss) for Status
    sconi.o(i._ZN5SCONI12GetPositionXEv) refers to cbus.o(i._ZN4CBUS8TransmitEcPcj) for CBUS::Transmit(char, char*, unsigned)
    sconi.o(i._ZN5SCONI12GetPositionXEv) refers to cbus.o(i._ZN4CBUS9TestReplyEc) for CBUS::TestReply(char)
    sconi.o(i._ZN5SCONI12GetPositionXEv) refers to cbus.o(i._ZN4CBUS17TestIfVerifyErrorEv) for CBUS::TestIfVerifyError()
    sconi.o(i._ZN5SCONI12GetPositionXEv) refers to sconi.o(i._ZN5SCONI7Chr2FloEPcjjb) for SCONI::Chr2Flo(char*, unsigned, unsigned, bool)
    sconi.o(i._ZN5SCONI12GetPositionXEv) refers to cbus.o(.bss) for Cbus
    sconi.o(i._ZN5SCONI12GetPositionXEv) refers to status.o(.bss) for Status
    sconi.o(i._ZN5SCONI12GetPositionYEv) refers to cbus.o(i._ZN4CBUS8TransmitEcPcj) for CBUS::Transmit(char, char*, unsigned)
    sconi.o(i._ZN5SCONI12GetPositionYEv) refers to cbus.o(i._ZN4CBUS9TestReplyEc) for CBUS::TestReply(char)
    sconi.o(i._ZN5SCONI12GetPositionYEv) refers to cbus.o(i._ZN4CBUS17TestIfVerifyErrorEv) for CBUS::TestIfVerifyError()
    sconi.o(i._ZN5SCONI12GetPositionYEv) refers to sconi.o(i._ZN5SCONI7Chr2FloEPcjjb) for SCONI::Chr2Flo(char*, unsigned, unsigned, bool)
    sconi.o(i._ZN5SCONI12GetPositionYEv) refers to cbus.o(.bss) for Cbus
    sconi.o(i._ZN5SCONI12GetPositionYEv) refers to status.o(.bss) for Status
    sconi.o(i._ZN5SCONI12GetPositionZEv) refers to cbus.o(i._ZN4CBUS8TransmitEcPcj) for CBUS::Transmit(char, char*, unsigned)
    sconi.o(i._ZN5SCONI12GetPositionZEv) refers to cbus.o(i._ZN4CBUS9TestReplyEc) for CBUS::TestReply(char)
    sconi.o(i._ZN5SCONI12GetPositionZEv) refers to cbus.o(i._ZN4CBUS17TestIfVerifyErrorEv) for CBUS::TestIfVerifyError()
    sconi.o(i._ZN5SCONI12GetPositionZEv) refers to sconi.o(i._ZN5SCONI7Chr2FloEPcjjb) for SCONI::Chr2Flo(char*, unsigned, unsigned, bool)
    sconi.o(i._ZN5SCONI12GetPositionZEv) refers to cbus.o(.bss) for Cbus
    sconi.o(i._ZN5SCONI12GetPositionZEv) refers to status.o(.bss) for Status
    sconi.o(i._ZN5SCONI12GetStatusIDPEv) refers to cbus.o(i._ZN4CBUS8TransmitEcPcj) for CBUS::Transmit(char, char*, unsigned)
    sconi.o(i._ZN5SCONI12GetStatusIDPEv) refers to cbus.o(i._ZN4CBUS9TestReplyEc) for CBUS::TestReply(char)
    sconi.o(i._ZN5SCONI12GetStatusIDPEv) refers to cbus.o(i._ZN4CBUS17TestIfVerifyErrorEv) for CBUS::TestIfVerifyError()
    sconi.o(i._ZN5SCONI12GetStatusIDPEv) refers to cbus.o(.bss) for Cbus
    sconi.o(i._ZN5SCONI12GetStatusIDPEv) refers to status.o(.bss) for Status
    sconi.o(i._ZN5SCONI12InitPositionEPd) refers to sconi.o(i._ZN5SCONI7Flo2ChrEPcdjjb) for SCONI::Flo2Chr(char*, double, unsigned, unsigned, bool)
    sconi.o(i._ZN5SCONI12InitPositionEPd) refers to cbus.o(i._ZN4CBUS8TransmitEcPcj) for CBUS::Transmit(char, char*, unsigned)
    sconi.o(i._ZN5SCONI12InitPositionEPd) refers to cbus.o(i._ZN4CBUS9TestReplyEc) for CBUS::TestReply(char)
    sconi.o(i._ZN5SCONI12InitPositionEPd) refers to cbus.o(.bss) for Cbus
    sconi.o(i._ZN5SCONI13EnableStepperEv) refers to cbus.o(i._ZN4CBUS8TransmitEcPcj) for CBUS::Transmit(char, char*, unsigned)
    sconi.o(i._ZN5SCONI13EnableStepperEv) refers to cbus.o(i._ZN4CBUS9TestReplyEc) for CBUS::TestReply(char)
    sconi.o(i._ZN5SCONI13EnableStepperEv) refers to cbus.o(.bss) for Cbus
    sconi.o(i._ZN5SCONI13GetStatusBusyEv) refers to cbus.o(i._ZN4CBUS8TransmitEcPcj) for CBUS::Transmit(char, char*, unsigned)
    sconi.o(i._ZN5SCONI13GetStatusBusyEv) refers to cbus.o(i._ZN4CBUS9TestReplyEc) for CBUS::TestReply(char)
    sconi.o(i._ZN5SCONI13GetStatusBusyEv) refers to cbus.o(i._ZN4CBUS17TestIfVerifyErrorEv) for CBUS::TestIfVerifyError()
    sconi.o(i._ZN5SCONI13GetStatusBusyEv) refers to cbus.o(.bss) for Cbus
    sconi.o(i._ZN5SCONI13GetTestPointAEv) refers to cbus.o(i._ZN4CBUS8TransmitEcPcj) for CBUS::Transmit(char, char*, unsigned)
    sconi.o(i._ZN5SCONI13GetTestPointAEv) refers to cbus.o(i._ZN4CBUS9TestReplyEc) for CBUS::TestReply(char)
    sconi.o(i._ZN5SCONI13GetTestPointAEv) refers to cbus.o(i._ZN4CBUS17TestIfVerifyErrorEv) for CBUS::TestIfVerifyError()
    sconi.o(i._ZN5SCONI13GetTestPointAEv) refers to sconi.o(i._ZN5SCONI7Chr2FloEPcjjb) for SCONI::Chr2Flo(char*, unsigned, unsigned, bool)
    sconi.o(i._ZN5SCONI13GetTestPointAEv) refers to cbus.o(.bss) for Cbus
    sconi.o(i._ZN5SCONI13GetTestPointAEv) refers to status.o(.bss) for Status
    sconi.o(i._ZN5SCONI13GetTestPointBEv) refers to cbus.o(i._ZN4CBUS8TransmitEcPcj) for CBUS::Transmit(char, char*, unsigned)
    sconi.o(i._ZN5SCONI13GetTestPointBEv) refers to cbus.o(i._ZN4CBUS9TestReplyEc) for CBUS::TestReply(char)
    sconi.o(i._ZN5SCONI13GetTestPointBEv) refers to cbus.o(i._ZN4CBUS17TestIfVerifyErrorEv) for CBUS::TestIfVerifyError()
    sconi.o(i._ZN5SCONI13GetTestPointBEv) refers to sconi.o(i._ZN5SCONI7Chr2FloEPcjjb) for SCONI::Chr2Flo(char*, unsigned, unsigned, bool)
    sconi.o(i._ZN5SCONI13GetTestPointBEv) refers to cbus.o(.bss) for Cbus
    sconi.o(i._ZN5SCONI13GetTestPointBEv) refers to status.o(.bss) for Status
    sconi.o(i._ZN5SCONI13GetTestPointCEv) refers to cbus.o(i._ZN4CBUS8TransmitEcPcj) for CBUS::Transmit(char, char*, unsigned)
    sconi.o(i._ZN5SCONI13GetTestPointCEv) refers to cbus.o(i._ZN4CBUS9TestReplyEc) for CBUS::TestReply(char)
    sconi.o(i._ZN5SCONI13GetTestPointCEv) refers to cbus.o(i._ZN4CBUS17TestIfVerifyErrorEv) for CBUS::TestIfVerifyError()
    sconi.o(i._ZN5SCONI13GetTestPointCEv) refers to sconi.o(i._ZN5SCONI7Chr2FloEPcjjb) for SCONI::Chr2Flo(char*, unsigned, unsigned, bool)
    sconi.o(i._ZN5SCONI13GetTestPointCEv) refers to cbus.o(.bss) for Cbus
    sconi.o(i._ZN5SCONI13GetTestPointCEv) refers to status.o(.bss) for Status
    sconi.o(i._ZN5SCONI13GetTestPointDEv) refers to cbus.o(i._ZN4CBUS8TransmitEcPcj) for CBUS::Transmit(char, char*, unsigned)
    sconi.o(i._ZN5SCONI13GetTestPointDEv) refers to cbus.o(i._ZN4CBUS9TestReplyEc) for CBUS::TestReply(char)
    sconi.o(i._ZN5SCONI13GetTestPointDEv) refers to cbus.o(i._ZN4CBUS17TestIfVerifyErrorEv) for CBUS::TestIfVerifyError()
    sconi.o(i._ZN5SCONI13GetTestPointDEv) refers to sconi.o(i._ZN5SCONI7Chr2FloEPcjjb) for SCONI::Chr2Flo(char*, unsigned, unsigned, bool)
    sconi.o(i._ZN5SCONI13GetTestPointDEv) refers to cbus.o(.bss) for Cbus
    sconi.o(i._ZN5SCONI13GetTestPointDEv) refers to status.o(.bss) for Status
    sconi.o(i._ZN5SCONI13GetTestPointMEv) refers to cbus.o(i._ZN4CBUS8TransmitEcPcj) for CBUS::Transmit(char, char*, unsigned)
    sconi.o(i._ZN5SCONI13GetTestPointMEv) refers to cbus.o(i._ZN4CBUS9TestReplyEc) for CBUS::TestReply(char)
    sconi.o(i._ZN5SCONI13GetTestPointMEv) refers to cbus.o(i._ZN4CBUS17TestIfVerifyErrorEv) for CBUS::TestIfVerifyError()
    sconi.o(i._ZN5SCONI13GetTestPointMEv) refers to sconi.o(i._ZN5SCONI7Chr2FloEPcjjb) for SCONI::Chr2Flo(char*, unsigned, unsigned, bool)
    sconi.o(i._ZN5SCONI13GetTestPointMEv) refers to cbus.o(.bss) for Cbus
    sconi.o(i._ZN5SCONI13GetTestPointMEv) refers to status.o(.bss) for Status
    sconi.o(i._ZN5SCONI14GetStatusHomedEv) refers to cbus.o(i._ZN4CBUS8TransmitEcPcj) for CBUS::Transmit(char, char*, unsigned)
    sconi.o(i._ZN5SCONI14GetStatusHomedEv) refers to cbus.o(i._ZN4CBUS9TestReplyEc) for CBUS::TestReply(char)
    sconi.o(i._ZN5SCONI14GetStatusHomedEv) refers to cbus.o(i._ZN4CBUS17TestIfVerifyErrorEv) for CBUS::TestIfVerifyError()
    sconi.o(i._ZN5SCONI14GetStatusHomedEv) refers to cbus.o(.bss) for Cbus
    sconi.o(i._ZN5SCONI14GetStatusHomedEv) refers to status.o(.bss) for Status
    sconi.o(i._ZN5SCONI14SetNozzleStateEhh) refers to cbus.o(i._ZN4CBUS8TransmitEcPcj) for CBUS::Transmit(char, char*, unsigned)
    sconi.o(i._ZN5SCONI14SetNozzleStateEhh) refers to cbus.o(i._ZN4CBUS9TestReplyEc) for CBUS::TestReply(char)
    sconi.o(i._ZN5SCONI14SetNozzleStateEhh) refers to cbus.o(.bss) for Cbus
    sconi.o(i._ZN5SCONI15GetPositionXMaxEv) refers to cbus.o(i._ZN4CBUS8TransmitEcPcj) for CBUS::Transmit(char, char*, unsigned)
    sconi.o(i._ZN5SCONI15GetPositionXMaxEv) refers to cbus.o(i._ZN4CBUS9TestReplyEc) for CBUS::TestReply(char)
    sconi.o(i._ZN5SCONI15GetPositionXMaxEv) refers to cbus.o(i._ZN4CBUS17TestIfVerifyErrorEv) for CBUS::TestIfVerifyError()
    sconi.o(i._ZN5SCONI15GetPositionXMaxEv) refers to sconi.o(i._ZN5SCONI7Chr2FloEPcjjb) for SCONI::Chr2Flo(char*, unsigned, unsigned, bool)
    sconi.o(i._ZN5SCONI15GetPositionXMaxEv) refers to cbus.o(.bss) for Cbus
    sconi.o(i._ZN5SCONI15GetPositionXMaxEv) refers to status.o(.bss) for Status
    sconi.o(i._ZN5SCONI15GetPositionYMaxEv) refers to cbus.o(i._ZN4CBUS8TransmitEcPcj) for CBUS::Transmit(char, char*, unsigned)
    sconi.o(i._ZN5SCONI15GetPositionYMaxEv) refers to cbus.o(i._ZN4CBUS9TestReplyEc) for CBUS::TestReply(char)
    sconi.o(i._ZN5SCONI15GetPositionYMaxEv) refers to cbus.o(i._ZN4CBUS17TestIfVerifyErrorEv) for CBUS::TestIfVerifyError()
    sconi.o(i._ZN5SCONI15GetPositionYMaxEv) refers to sconi.o(i._ZN5SCONI7Chr2FloEPcjjb) for SCONI::Chr2Flo(char*, unsigned, unsigned, bool)
    sconi.o(i._ZN5SCONI15GetPositionYMaxEv) refers to cbus.o(.bss) for Cbus
    sconi.o(i._ZN5SCONI15GetPositionYMaxEv) refers to status.o(.bss) for Status
    sconi.o(i._ZN5SCONI15GetPositionZMaxEv) refers to cbus.o(i._ZN4CBUS8TransmitEcPcj) for CBUS::Transmit(char, char*, unsigned)
    sconi.o(i._ZN5SCONI15GetPositionZMaxEv) refers to cbus.o(i._ZN4CBUS9TestReplyEc) for CBUS::TestReply(char)
    sconi.o(i._ZN5SCONI15GetPositionZMaxEv) refers to cbus.o(i._ZN4CBUS17TestIfVerifyErrorEv) for CBUS::TestIfVerifyError()
    sconi.o(i._ZN5SCONI15GetPositionZMaxEv) refers to sconi.o(i._ZN5SCONI7Chr2FloEPcjjb) for SCONI::Chr2Flo(char*, unsigned, unsigned, bool)
    sconi.o(i._ZN5SCONI15GetPositionZMaxEv) refers to cbus.o(.bss) for Cbus
    sconi.o(i._ZN5SCONI15GetPositionZMaxEv) refers to status.o(.bss) for Status
    sconi.o(i._ZN5SCONI16GetStatusNozzleAEv) refers to cbus.o(i._ZN4CBUS8TransmitEcPcj) for CBUS::Transmit(char, char*, unsigned)
    sconi.o(i._ZN5SCONI16GetStatusNozzleAEv) refers to cbus.o(i._ZN4CBUS9TestReplyEc) for CBUS::TestReply(char)
    sconi.o(i._ZN5SCONI16GetStatusNozzleAEv) refers to cbus.o(i._ZN4CBUS17TestIfVerifyErrorEv) for CBUS::TestIfVerifyError()
    sconi.o(i._ZN5SCONI16GetStatusNozzleAEv) refers to cbus.o(.bss) for Cbus
    sconi.o(i._ZN5SCONI16GetStatusNozzleAEv) refers to status.o(.bss) for Status
    sconi.o(i._ZN5SCONI16GetStatusNozzleBEv) refers to cbus.o(i._ZN4CBUS8TransmitEcPcj) for CBUS::Transmit(char, char*, unsigned)
    sconi.o(i._ZN5SCONI16GetStatusNozzleBEv) refers to cbus.o(i._ZN4CBUS9TestReplyEc) for CBUS::TestReply(char)
    sconi.o(i._ZN5SCONI16GetStatusNozzleBEv) refers to cbus.o(i._ZN4CBUS17TestIfVerifyErrorEv) for CBUS::TestIfVerifyError()
    sconi.o(i._ZN5SCONI16GetStatusNozzleBEv) refers to cbus.o(.bss) for Cbus
    sconi.o(i._ZN5SCONI16GetStatusNozzleBEv) refers to status.o(.bss) for Status
    sconi.o(i._ZN5SCONI16GetStatusStepperEv) refers to cbus.o(i._ZN4CBUS8TransmitEcPcj) for CBUS::Transmit(char, char*, unsigned)
    sconi.o(i._ZN5SCONI16GetStatusStepperEv) refers to cbus.o(i._ZN4CBUS9TestReplyEc) for CBUS::TestReply(char)
    sconi.o(i._ZN5SCONI16GetStatusStepperEv) refers to cbus.o(i._ZN4CBUS17TestIfVerifyErrorEv) for CBUS::TestIfVerifyError()
    sconi.o(i._ZN5SCONI16GetStatusStepperEv) refers to cbus.o(.bss) for Cbus
    sconi.o(i._ZN5SCONI16GetStatusStepperEv) refers to status.o(.bss) for Status
    sconi.o(i._ZN5SCONI17GetStatusLevelingEv) refers to cbus.o(i._ZN4CBUS8TransmitEcPcj) for CBUS::Transmit(char, char*, unsigned)
    sconi.o(i._ZN5SCONI17GetStatusLevelingEv) refers to cbus.o(i._ZN4CBUS9TestReplyEc) for CBUS::TestReply(char)
    sconi.o(i._ZN5SCONI17GetStatusLevelingEv) refers to cbus.o(i._ZN4CBUS17TestIfVerifyErrorEv) for CBUS::TestIfVerifyError()
    sconi.o(i._ZN5SCONI17GetStatusLevelingEv) refers to cbus.o(.bss) for Cbus
    sconi.o(i._ZN5SCONI17GetStatusLevelingEv) refers to status.o(.bss) for Status
    sconi.o(i._ZN5SCONI6MotionEPdf) refers to sconi.o(i._ZN5SCONI7Flo2ChrEPcdjjb) for SCONI::Flo2Chr(char*, double, unsigned, unsigned, bool)
    sconi.o(i._ZN5SCONI6MotionEPdf) refers to frleqf.o(x$fpl$frleqf) for __aeabi_cfrcmple
    sconi.o(i._ZN5SCONI6MotionEPdf) refers to fleqf.o(x$fpl$fleqf) for __aeabi_cfcmple
    sconi.o(i._ZN5SCONI6MotionEPdf) refers to f2d.o(x$fpl$f2d) for __aeabi_f2d
    sconi.o(i._ZN5SCONI6MotionEPdf) refers to cbus.o(i._ZN4CBUS8TransmitEcPcj) for CBUS::Transmit(char, char*, unsigned)
    sconi.o(i._ZN5SCONI6MotionEPdf) refers to cbus.o(i._ZN4CBUS9TestReplyEc) for CBUS::TestReply(char)
    sconi.o(i._ZN5SCONI6MotionEPdf) refers to cbus.o(.bss) for Cbus
    sconi.o(i._ZN5SCONI7Chr2FloEPcjjb) refers to dflt_clz.o(x$fpl$dflt) for __aeabi_i2d
    sconi.o(i._ZN5SCONI7Chr2FloEPcjjb) refers to dmul.o(x$fpl$dmul) for __aeabi_dmul
    sconi.o(i._ZN5SCONI7Chr2FloEPcjjb) refers to daddsub_clz.o(x$fpl$dadd) for __aeabi_dadd
    sconi.o(i._ZN5SCONI7Chr2FloEPcjjb) refers to ddiv.o(x$fpl$ddiv) for __aeabi_ddiv
    sconi.o(i._ZN5SCONI7Chr2FloEPcjjb) refers to sconi.o(.data) for Weight
    sconi.o(i._ZN5SCONI7Flo2ChrEPcdjjb) refers to drleqf.o(x$fpl$drleqf) for __aeabi_cdrcmple
    sconi.o(i._ZN5SCONI7Flo2ChrEPcdjjb) refers to dleqf.o(x$fpl$dleqf) for __aeabi_cdcmple
    sconi.o(i._ZN5SCONI7Flo2ChrEPcdjjb) refers to dfixll.o(x$fpl$llsfromd) for __aeabi_d2lz
    sconi.o(i._ZN5SCONI7Flo2ChrEPcdjjb) refers to llsdiv.o(.text) for __aeabi_ldivmod
    sconi.o(i._ZN5SCONI7Flo2ChrEPcdjjb) refers to dfltll_clz.o(x$fpl$dfltll) for __aeabi_l2d
    sconi.o(i._ZN5SCONI7Flo2ChrEPcdjjb) refers to dmul.o(x$fpl$dmul) for __aeabi_dmul
    sconi.o(i._ZN5SCONI7Flo2ChrEPcdjjb) refers to sconi.o(.data) for Weight
    sconi.o(i._ZN5SCONI8GetL1MaxEv) refers to cbus.o(i._ZN4CBUS8TransmitEcPcj) for CBUS::Transmit(char, char*, unsigned)
    sconi.o(i._ZN5SCONI8GetL1MaxEv) refers to cbus.o(i._ZN4CBUS9TestReplyEc) for CBUS::TestReply(char)
    sconi.o(i._ZN5SCONI8GetL1MaxEv) refers to cbus.o(i._ZN4CBUS17TestIfVerifyErrorEv) for CBUS::TestIfVerifyError()
    sconi.o(i._ZN5SCONI8GetL1MaxEv) refers to sconi.o(i._ZN5SCONI7Chr2FloEPcjjb) for SCONI::Chr2Flo(char*, unsigned, unsigned, bool)
    sconi.o(i._ZN5SCONI8GetL1MaxEv) refers to dfixu.o(x$fpl$dfixu) for __aeabi_d2uiz
    sconi.o(i._ZN5SCONI8GetL1MaxEv) refers to cbus.o(.bss) for Cbus
    sconi.o(i._ZN5SCONI8GetL1MaxEv) refers to status.o(.bss) for Status
    sconi.o(i._ZN5SCONI8GetL2MaxEv) refers to cbus.o(i._ZN4CBUS8TransmitEcPcj) for CBUS::Transmit(char, char*, unsigned)
    sconi.o(i._ZN5SCONI8GetL2MaxEv) refers to cbus.o(i._ZN4CBUS9TestReplyEc) for CBUS::TestReply(char)
    sconi.o(i._ZN5SCONI8GetL2MaxEv) refers to cbus.o(i._ZN4CBUS17TestIfVerifyErrorEv) for CBUS::TestIfVerifyError()
    sconi.o(i._ZN5SCONI8GetL2MaxEv) refers to sconi.o(i._ZN5SCONI7Chr2FloEPcjjb) for SCONI::Chr2Flo(char*, unsigned, unsigned, bool)
    sconi.o(i._ZN5SCONI8GetL2MaxEv) refers to dfixu.o(x$fpl$dfixu) for __aeabi_d2uiz
    sconi.o(i._ZN5SCONI8GetL2MaxEv) refers to cbus.o(.bss) for Cbus
    sconi.o(i._ZN5SCONI8GetL2MaxEv) refers to status.o(.bss) for Status
    sconi.o(i._ZN5SCONI8MoveAxisEdh) refers to sconi.o(i._ZN5SCONI7Flo2ChrEPcdjjb) for SCONI::Flo2Chr(char*, double, unsigned, unsigned, bool)
    sconi.o(i._ZN5SCONI8MoveAxisEdh) refers to cbus.o(i._ZN4CBUS8TransmitEcPcj) for CBUS::Transmit(char, char*, unsigned)
    sconi.o(i._ZN5SCONI8MoveAxisEdh) refers to cbus.o(i._ZN4CBUS9TestReplyEc) for CBUS::TestReply(char)
    sconi.o(i._ZN5SCONI8MoveAxisEdh) refers to cbus.o(.bss) for Cbus
    sconi.o(i._ZN5SCONI8TestLinkEv) refers to cbus.o(i._ZN4CBUS8TransmitEcPcj) for CBUS::Transmit(char, char*, unsigned)
    sconi.o(i._ZN5SCONI8TestLinkEv) refers to cbus.o(i._ZN4CBUS9TestReplyEc) for CBUS::TestReply(char)
    sconi.o(i._ZN5SCONI8TestLinkEv) refers to cbus.o(.bss) for Cbus
    sconi.o(i._ZN5SCONI9EnableIDPEv) refers to cbus.o(i._ZN4CBUS8TransmitEcPcj) for CBUS::Transmit(char, char*, unsigned)
    sconi.o(i._ZN5SCONI9EnableIDPEv) refers to cbus.o(i._ZN4CBUS9TestReplyEc) for CBUS::TestReply(char)
    sconi.o(i._ZN5SCONI9EnableIDPEv) refers to cbus.o(.bss) for Cbus
    sconi.o(i._ZN5SCONI9GetL1RestEv) refers to cbus.o(i._ZN4CBUS8TransmitEcPcj) for CBUS::Transmit(char, char*, unsigned)
    sconi.o(i._ZN5SCONI9GetL1RestEv) refers to cbus.o(i._ZN4CBUS9TestReplyEc) for CBUS::TestReply(char)
    sconi.o(i._ZN5SCONI9GetL1RestEv) refers to cbus.o(i._ZN4CBUS17TestIfVerifyErrorEv) for CBUS::TestIfVerifyError()
    sconi.o(i._ZN5SCONI9GetL1RestEv) refers to sconi.o(i._ZN5SCONI7Chr2FloEPcjjb) for SCONI::Chr2Flo(char*, unsigned, unsigned, bool)
    sconi.o(i._ZN5SCONI9GetL1RestEv) refers to dfixu.o(x$fpl$dfixu) for __aeabi_d2uiz
    sconi.o(i._ZN5SCONI9GetL1RestEv) refers to cbus.o(.bss) for Cbus
    sconi.o(i._ZN5SCONI9GetL1RestEv) refers to status.o(.bss) for Status
    sconi.o(i._ZN5SCONI9GetL2RestEv) refers to cbus.o(i._ZN4CBUS8TransmitEcPcj) for CBUS::Transmit(char, char*, unsigned)
    sconi.o(i._ZN5SCONI9GetL2RestEv) refers to cbus.o(i._ZN4CBUS9TestReplyEc) for CBUS::TestReply(char)
    sconi.o(i._ZN5SCONI9GetL2RestEv) refers to cbus.o(i._ZN4CBUS17TestIfVerifyErrorEv) for CBUS::TestIfVerifyError()
    sconi.o(i._ZN5SCONI9GetL2RestEv) refers to sconi.o(i._ZN5SCONI7Chr2FloEPcjjb) for SCONI::Chr2Flo(char*, unsigned, unsigned, bool)
    sconi.o(i._ZN5SCONI9GetL2RestEv) refers to dfixu.o(x$fpl$dfixu) for __aeabi_d2uiz
    sconi.o(i._ZN5SCONI9GetL2RestEv) refers to cbus.o(.bss) for Cbus
    sconi.o(i._ZN5SCONI9GetL2RestEv) refers to status.o(.bss) for Status
    sconi.o(.ARM.exidx) refers to sconi.o(i._ZN5SCONI7Flo2ChrEPcdjjb) for i._ZN5SCONI7Flo2ChrEPcdjjb
    sconi.o(.ARM.exidx) refers to sconi.o(i._ZN5SCONI6MotionEPdf) for i._ZN5SCONI6MotionEPdf
    sconi.o(.ARM.exidx) refers to sconi.o(i._ZN5SCONI12InitPositionEPd) for i._ZN5SCONI12InitPositionEPd
    sconi.o(.ARM.exidx) refers to sconi.o(i._ZN5SCONI10AutoHomingEv) for i._ZN5SCONI10AutoHomingEv
    sconi.o(.ARM.exidx) refers to sconi.o(i._ZN5SCONI8MoveAxisEdh) for i._ZN5SCONI8MoveAxisEdh
    sconi.o(.ARM.exidx) refers to sconi.o(i._ZN5SCONI14SetNozzleStateEhh) for i._ZN5SCONI14SetNozzleStateEhh
    sconi.o(.ARM.exidx) refers to sconi.o(i._ZN5SCONI13GetStatusBusyEv) for i._ZN5SCONI13GetStatusBusyEv
    sconi.o(.ARM.exidx) refers to sconi.o(i._ZN5SCONI7Chr2FloEPcjjb) for i._ZN5SCONI7Chr2FloEPcjjb
    sconi.o(.ARM.exidx) refers to sconi.o(i._ZN5SCONI13GetTestPointAEv) for i._ZN5SCONI13GetTestPointAEv
    sconi.o(.ARM.exidx) refers to sconi.o(i._ZN5SCONI13GetTestPointBEv) for i._ZN5SCONI13GetTestPointBEv
    sconi.o(.ARM.exidx) refers to sconi.o(i._ZN5SCONI13GetTestPointCEv) for i._ZN5SCONI13GetTestPointCEv
    sconi.o(.ARM.exidx) refers to sconi.o(i._ZN5SCONI13GetTestPointDEv) for i._ZN5SCONI13GetTestPointDEv
    sconi.o(.ARM.exidx) refers to sconi.o(i._ZN5SCONI13GetTestPointMEv) for i._ZN5SCONI13GetTestPointMEv
    sconi.o(.ARM.exidx) refers to sconi.o(i._ZN5SCONI12GetPositionXEv) for i._ZN5SCONI12GetPositionXEv
    sconi.o(.ARM.exidx) refers to sconi.o(i._ZN5SCONI12GetPositionYEv) for i._ZN5SCONI12GetPositionYEv
    sconi.o(.ARM.exidx) refers to sconi.o(i._ZN5SCONI12GetPositionZEv) for i._ZN5SCONI12GetPositionZEv
    sconi.o(.ARM.exidx) refers to sconi.o(i._ZN5SCONI12GetPositionAEv) for i._ZN5SCONI12GetPositionAEv
    sconi.o(.ARM.exidx) refers to sconi.o(i._ZN5SCONI12GetPositionBEv) for i._ZN5SCONI12GetPositionBEv
    sconi.o(.ARM.exidx) refers to sconi.o(i._ZN5SCONI15GetPositionXMaxEv) for i._ZN5SCONI15GetPositionXMaxEv
    sconi.o(.ARM.exidx) refers to sconi.o(i._ZN5SCONI15GetPositionYMaxEv) for i._ZN5SCONI15GetPositionYMaxEv
    sconi.o(.ARM.exidx) refers to sconi.o(i._ZN5SCONI15GetPositionZMaxEv) for i._ZN5SCONI15GetPositionZMaxEv
    sconi.o(.ARM.exidx) refers to sconi.o(i._ZN5SCONI16GetStatusNozzleAEv) for i._ZN5SCONI16GetStatusNozzleAEv
    sconi.o(.ARM.exidx) refers to sconi.o(i._ZN5SCONI16GetStatusNozzleBEv) for i._ZN5SCONI16GetStatusNozzleBEv
    sconi.o(.ARM.exidx) refers to sconi.o(i._ZN5SCONI11GetStatusFAEv) for i._ZN5SCONI11GetStatusFAEv
    sconi.o(.ARM.exidx) refers to sconi.o(i._ZN5SCONI12GetStatusIDPEv) for i._ZN5SCONI12GetStatusIDPEv
    sconi.o(.ARM.exidx) refers to sconi.o(i._ZN5SCONI16GetStatusStepperEv) for i._ZN5SCONI16GetStatusStepperEv
    sconi.o(.ARM.exidx) refers to sconi.o(i._ZN5SCONI14GetStatusHomedEv) for i._ZN5SCONI14GetStatusHomedEv
    sconi.o(.ARM.exidx) refers to sconi.o(i._ZN5SCONI17GetStatusLevelingEv) for i._ZN5SCONI17GetStatusLevelingEv
    sconi.o(.ARM.exidx) refers to sconi.o(i._ZN5SCONI9GetL1RestEv) for i._ZN5SCONI9GetL1RestEv
    sconi.o(.ARM.exidx) refers to sconi.o(i._ZN5SCONI9GetL2RestEv) for i._ZN5SCONI9GetL2RestEv
    sconi.o(.ARM.exidx) refers to sconi.o(i._ZN5SCONI8GetL1MaxEv) for i._ZN5SCONI8GetL1MaxEv
    sconi.o(.ARM.exidx) refers to sconi.o(i._ZN5SCONI8GetL2MaxEv) for i._ZN5SCONI8GetL2MaxEv
    sconi.o(.ARM.exidx) refers to sconi.o(i._ZN5SCONI11SetPositionEdc) for i._ZN5SCONI11SetPositionEdc
    sconi.o(.ARM.exidx) refers to sconi.o(i._ZN5SCONI13EnableStepperEv) for i._ZN5SCONI13EnableStepperEv
    sconi.o(.ARM.exidx) refers to sconi.o(i._ZN5SCONI9EnableIDPEv) for i._ZN5SCONI9EnableIDPEv
    sconi.o(.ARM.exidx) refers to sconi.o(i._ZN5SCONI10DisableIDPEv) for i._ZN5SCONI10DisableIDPEv
    sconi.o(.ARM.exidx) refers to sconi.o(i._ZN5SCONI8TestLinkEv) for i._ZN5SCONI8TestLinkEv
    tconi.o(i._ZN5TCONI18GetStatusBasePlaneEv) refers to cbus.o(i._ZN4CBUS8TransmitEcPcj) for CBUS::Transmit(char, char*, unsigned)
    tconi.o(i._ZN5TCONI18GetStatusBasePlaneEv) refers to cbus.o(i._ZN4CBUS9TestReplyEc) for CBUS::TestReply(char)
    tconi.o(i._ZN5TCONI18GetStatusBasePlaneEv) refers to cbus.o(i._ZN4CBUS17TestIfVerifyErrorEv) for CBUS::TestIfVerifyError()
    tconi.o(i._ZN5TCONI18GetStatusBasePlaneEv) refers to cbus.o(.bss) for Cbus
    tconi.o(i._ZN5TCONI18GetStatusBasePlaneEv) refers to status.o(.bss) for Status
    tconi.o(i._ZN5TCONI18GetStatusExtruderAEv) refers to cbus.o(i._ZN4CBUS8TransmitEcPcj) for CBUS::Transmit(char, char*, unsigned)
    tconi.o(i._ZN5TCONI18GetStatusExtruderAEv) refers to cbus.o(i._ZN4CBUS9TestReplyEc) for CBUS::TestReply(char)
    tconi.o(i._ZN5TCONI18GetStatusExtruderAEv) refers to cbus.o(i._ZN4CBUS17TestIfVerifyErrorEv) for CBUS::TestIfVerifyError()
    tconi.o(i._ZN5TCONI18GetStatusExtruderAEv) refers to cbus.o(.bss) for Cbus
    tconi.o(i._ZN5TCONI18GetStatusExtruderAEv) refers to status.o(.bss) for Status
    tconi.o(i._ZN5TCONI18GetStatusExtruderBEv) refers to cbus.o(i._ZN4CBUS8TransmitEcPcj) for CBUS::Transmit(char, char*, unsigned)
    tconi.o(i._ZN5TCONI18GetStatusExtruderBEv) refers to cbus.o(i._ZN4CBUS9TestReplyEc) for CBUS::TestReply(char)
    tconi.o(i._ZN5TCONI18GetStatusExtruderBEv) refers to cbus.o(i._ZN4CBUS17TestIfVerifyErrorEv) for CBUS::TestIfVerifyError()
    tconi.o(i._ZN5TCONI18GetStatusExtruderBEv) refers to cbus.o(.bss) for Cbus
    tconi.o(i._ZN5TCONI18GetStatusExtruderBEv) refers to status.o(.bss) for Status
    tconi.o(i._ZN5TCONI23GetCoolerPowerExtruderAEv) refers to cbus.o(i._ZN4CBUS8TransmitEcPcj) for CBUS::Transmit(char, char*, unsigned)
    tconi.o(i._ZN5TCONI23GetCoolerPowerExtruderAEv) refers to cbus.o(i._ZN4CBUS9TestReplyEc) for CBUS::TestReply(char)
    tconi.o(i._ZN5TCONI23GetCoolerPowerExtruderAEv) refers to cbus.o(i._ZN4CBUS17TestIfVerifyErrorEv) for CBUS::TestIfVerifyError()
    tconi.o(i._ZN5TCONI23GetCoolerPowerExtruderAEv) refers to tconi.o(i._ZN5TCONI7Chr2FloEPcjjb) for TCONI::Chr2Flo(char*, unsigned, unsigned, bool)
    tconi.o(i._ZN5TCONI23GetCoolerPowerExtruderAEv) refers to dfixu.o(x$fpl$dfixu) for __aeabi_d2uiz
    tconi.o(i._ZN5TCONI23GetCoolerPowerExtruderAEv) refers to cbus.o(.bss) for Cbus
    tconi.o(i._ZN5TCONI23GetCoolerPowerExtruderAEv) refers to status.o(.bss) for Status
    tconi.o(i._ZN5TCONI23GetCoolerPowerExtruderBEv) refers to cbus.o(i._ZN4CBUS8TransmitEcPcj) for CBUS::Transmit(char, char*, unsigned)
    tconi.o(i._ZN5TCONI23GetCoolerPowerExtruderBEv) refers to cbus.o(i._ZN4CBUS9TestReplyEc) for CBUS::TestReply(char)
    tconi.o(i._ZN5TCONI23GetCoolerPowerExtruderBEv) refers to cbus.o(i._ZN4CBUS17TestIfVerifyErrorEv) for CBUS::TestIfVerifyError()
    tconi.o(i._ZN5TCONI23GetCoolerPowerExtruderBEv) refers to tconi.o(i._ZN5TCONI7Chr2FloEPcjjb) for TCONI::Chr2Flo(char*, unsigned, unsigned, bool)
    tconi.o(i._ZN5TCONI23GetCoolerPowerExtruderBEv) refers to dfixu.o(x$fpl$dfixu) for __aeabi_d2uiz
    tconi.o(i._ZN5TCONI23GetCoolerPowerExtruderBEv) refers to cbus.o(.bss) for Cbus
    tconi.o(i._ZN5TCONI23GetCoolerPowerExtruderBEv) refers to status.o(.bss) for Status
    tconi.o(i._ZN5TCONI23GetHeaterPowerBasePlaneEv) refers to cbus.o(i._ZN4CBUS8TransmitEcPcj) for CBUS::Transmit(char, char*, unsigned)
    tconi.o(i._ZN5TCONI23GetHeaterPowerBasePlaneEv) refers to cbus.o(i._ZN4CBUS9TestReplyEc) for CBUS::TestReply(char)
    tconi.o(i._ZN5TCONI23GetHeaterPowerBasePlaneEv) refers to cbus.o(i._ZN4CBUS17TestIfVerifyErrorEv) for CBUS::TestIfVerifyError()
    tconi.o(i._ZN5TCONI23GetHeaterPowerBasePlaneEv) refers to tconi.o(i._ZN5TCONI7Chr2FloEPcjjb) for TCONI::Chr2Flo(char*, unsigned, unsigned, bool)
    tconi.o(i._ZN5TCONI23GetHeaterPowerBasePlaneEv) refers to dfixu.o(x$fpl$dfixu) for __aeabi_d2uiz
    tconi.o(i._ZN5TCONI23GetHeaterPowerBasePlaneEv) refers to cbus.o(.bss) for Cbus
    tconi.o(i._ZN5TCONI23GetHeaterPowerBasePlaneEv) refers to status.o(.bss) for Status
    tconi.o(i._ZN5TCONI23GetHeaterPowerExtruderAEv) refers to cbus.o(i._ZN4CBUS8TransmitEcPcj) for CBUS::Transmit(char, char*, unsigned)
    tconi.o(i._ZN5TCONI23GetHeaterPowerExtruderAEv) refers to cbus.o(i._ZN4CBUS9TestReplyEc) for CBUS::TestReply(char)
    tconi.o(i._ZN5TCONI23GetHeaterPowerExtruderAEv) refers to cbus.o(i._ZN4CBUS17TestIfVerifyErrorEv) for CBUS::TestIfVerifyError()
    tconi.o(i._ZN5TCONI23GetHeaterPowerExtruderAEv) refers to tconi.o(i._ZN5TCONI7Chr2FloEPcjjb) for TCONI::Chr2Flo(char*, unsigned, unsigned, bool)
    tconi.o(i._ZN5TCONI23GetHeaterPowerExtruderAEv) refers to dfixu.o(x$fpl$dfixu) for __aeabi_d2uiz
    tconi.o(i._ZN5TCONI23GetHeaterPowerExtruderAEv) refers to cbus.o(.bss) for Cbus
    tconi.o(i._ZN5TCONI23GetHeaterPowerExtruderAEv) refers to status.o(.bss) for Status
    tconi.o(i._ZN5TCONI23GetHeaterPowerExtruderBEv) refers to cbus.o(i._ZN4CBUS8TransmitEcPcj) for CBUS::Transmit(char, char*, unsigned)
    tconi.o(i._ZN5TCONI23GetHeaterPowerExtruderBEv) refers to cbus.o(i._ZN4CBUS9TestReplyEc) for CBUS::TestReply(char)
    tconi.o(i._ZN5TCONI23GetHeaterPowerExtruderBEv) refers to cbus.o(i._ZN4CBUS17TestIfVerifyErrorEv) for CBUS::TestIfVerifyError()
    tconi.o(i._ZN5TCONI23GetHeaterPowerExtruderBEv) refers to tconi.o(i._ZN5TCONI7Chr2FloEPcjjb) for TCONI::Chr2Flo(char*, unsigned, unsigned, bool)
    tconi.o(i._ZN5TCONI23GetHeaterPowerExtruderBEv) refers to dfixu.o(x$fpl$dfixu) for __aeabi_d2uiz
    tconi.o(i._ZN5TCONI23GetHeaterPowerExtruderBEv) refers to cbus.o(.bss) for Cbus
    tconi.o(i._ZN5TCONI23GetHeaterPowerExtruderBEv) refers to status.o(.bss) for Status
    tconi.o(i._ZN5TCONI23GetTemperatureBPSettingEv) refers to cbus.o(i._ZN4CBUS8TransmitEcPcj) for CBUS::Transmit(char, char*, unsigned)
    tconi.o(i._ZN5TCONI23GetTemperatureBPSettingEv) refers to cbus.o(i._ZN4CBUS9TestReplyEc) for CBUS::TestReply(char)
    tconi.o(i._ZN5TCONI23GetTemperatureBPSettingEv) refers to cbus.o(i._ZN4CBUS17TestIfVerifyErrorEv) for CBUS::TestIfVerifyError()
    tconi.o(i._ZN5TCONI23GetTemperatureBPSettingEv) refers to tconi.o(i._ZN5TCONI7Chr2FloEPcjjb) for TCONI::Chr2Flo(char*, unsigned, unsigned, bool)
    tconi.o(i._ZN5TCONI23GetTemperatureBPSettingEv) refers to dfixu.o(x$fpl$dfixu) for __aeabi_d2uiz
    tconi.o(i._ZN5TCONI23GetTemperatureBPSettingEv) refers to cbus.o(.bss) for Cbus
    tconi.o(i._ZN5TCONI23GetTemperatureBPSettingEv) refers to status.o(.bss) for Status
    tconi.o(i._ZN5TCONI23GetTemperatureBasePlaneEv) refers to cbus.o(i._ZN4CBUS8TransmitEcPcj) for CBUS::Transmit(char, char*, unsigned)
    tconi.o(i._ZN5TCONI23GetTemperatureBasePlaneEv) refers to cbus.o(i._ZN4CBUS9TestReplyEc) for CBUS::TestReply(char)
    tconi.o(i._ZN5TCONI23GetTemperatureBasePlaneEv) refers to cbus.o(i._ZN4CBUS17TestIfVerifyErrorEv) for CBUS::TestIfVerifyError()
    tconi.o(i._ZN5TCONI23GetTemperatureBasePlaneEv) refers to tconi.o(i._ZN5TCONI7Chr2FloEPcjjb) for TCONI::Chr2Flo(char*, unsigned, unsigned, bool)
    tconi.o(i._ZN5TCONI23GetTemperatureBasePlaneEv) refers to dfixu.o(x$fpl$dfixu) for __aeabi_d2uiz
    tconi.o(i._ZN5TCONI23GetTemperatureBasePlaneEv) refers to cbus.o(.bss) for Cbus
    tconi.o(i._ZN5TCONI23GetTemperatureBasePlaneEv) refers to status.o(.bss) for Status
    tconi.o(i._ZN5TCONI23GetTemperatureEASettingEv) refers to cbus.o(i._ZN4CBUS8TransmitEcPcj) for CBUS::Transmit(char, char*, unsigned)
    tconi.o(i._ZN5TCONI23GetTemperatureEASettingEv) refers to cbus.o(i._ZN4CBUS9TestReplyEc) for CBUS::TestReply(char)
    tconi.o(i._ZN5TCONI23GetTemperatureEASettingEv) refers to cbus.o(i._ZN4CBUS17TestIfVerifyErrorEv) for CBUS::TestIfVerifyError()
    tconi.o(i._ZN5TCONI23GetTemperatureEASettingEv) refers to tconi.o(i._ZN5TCONI7Chr2FloEPcjjb) for TCONI::Chr2Flo(char*, unsigned, unsigned, bool)
    tconi.o(i._ZN5TCONI23GetTemperatureEASettingEv) refers to dfixu.o(x$fpl$dfixu) for __aeabi_d2uiz
    tconi.o(i._ZN5TCONI23GetTemperatureEASettingEv) refers to cbus.o(.bss) for Cbus
    tconi.o(i._ZN5TCONI23GetTemperatureEASettingEv) refers to status.o(.bss) for Status
    tconi.o(i._ZN5TCONI23GetTemperatureEBSettingEv) refers to cbus.o(i._ZN4CBUS8TransmitEcPcj) for CBUS::Transmit(char, char*, unsigned)
    tconi.o(i._ZN5TCONI23GetTemperatureEBSettingEv) refers to cbus.o(i._ZN4CBUS9TestReplyEc) for CBUS::TestReply(char)
    tconi.o(i._ZN5TCONI23GetTemperatureEBSettingEv) refers to cbus.o(i._ZN4CBUS17TestIfVerifyErrorEv) for CBUS::TestIfVerifyError()
    tconi.o(i._ZN5TCONI23GetTemperatureEBSettingEv) refers to tconi.o(i._ZN5TCONI7Chr2FloEPcjjb) for TCONI::Chr2Flo(char*, unsigned, unsigned, bool)
    tconi.o(i._ZN5TCONI23GetTemperatureEBSettingEv) refers to dfixu.o(x$fpl$dfixu) for __aeabi_d2uiz
    tconi.o(i._ZN5TCONI23GetTemperatureEBSettingEv) refers to cbus.o(.bss) for Cbus
    tconi.o(i._ZN5TCONI23GetTemperatureEBSettingEv) refers to status.o(.bss) for Status
    tconi.o(i._ZN5TCONI23GetTemperatureExtruderAEv) refers to cbus.o(i._ZN4CBUS8TransmitEcPcj) for CBUS::Transmit(char, char*, unsigned)
    tconi.o(i._ZN5TCONI23GetTemperatureExtruderAEv) refers to cbus.o(i._ZN4CBUS9TestReplyEc) for CBUS::TestReply(char)
    tconi.o(i._ZN5TCONI23GetTemperatureExtruderAEv) refers to cbus.o(i._ZN4CBUS17TestIfVerifyErrorEv) for CBUS::TestIfVerifyError()
    tconi.o(i._ZN5TCONI23GetTemperatureExtruderAEv) refers to tconi.o(i._ZN5TCONI7Chr2FloEPcjjb) for TCONI::Chr2Flo(char*, unsigned, unsigned, bool)
    tconi.o(i._ZN5TCONI23GetTemperatureExtruderAEv) refers to dfixu.o(x$fpl$dfixu) for __aeabi_d2uiz
    tconi.o(i._ZN5TCONI23GetTemperatureExtruderAEv) refers to cbus.o(.bss) for Cbus
    tconi.o(i._ZN5TCONI23GetTemperatureExtruderAEv) refers to status.o(.bss) for Status
    tconi.o(i._ZN5TCONI23GetTemperatureExtruderBEv) refers to cbus.o(i._ZN4CBUS8TransmitEcPcj) for CBUS::Transmit(char, char*, unsigned)
    tconi.o(i._ZN5TCONI23GetTemperatureExtruderBEv) refers to cbus.o(i._ZN4CBUS9TestReplyEc) for CBUS::TestReply(char)
    tconi.o(i._ZN5TCONI23GetTemperatureExtruderBEv) refers to cbus.o(i._ZN4CBUS17TestIfVerifyErrorEv) for CBUS::TestIfVerifyError()
    tconi.o(i._ZN5TCONI23GetTemperatureExtruderBEv) refers to tconi.o(i._ZN5TCONI7Chr2FloEPcjjb) for TCONI::Chr2Flo(char*, unsigned, unsigned, bool)
    tconi.o(i._ZN5TCONI23GetTemperatureExtruderBEv) refers to dfixu.o(x$fpl$dfixu) for __aeabi_d2uiz
    tconi.o(i._ZN5TCONI23GetTemperatureExtruderBEv) refers to cbus.o(.bss) for Cbus
    tconi.o(i._ZN5TCONI23GetTemperatureExtruderBEv) refers to status.o(.bss) for Status
    tconi.o(i._ZN5TCONI23SetCoolerPowerExtruderAEh) refers to dflt_clz.o(x$fpl$dfltu) for __aeabi_ui2d
    tconi.o(i._ZN5TCONI23SetCoolerPowerExtruderAEh) refers to tconi.o(i._ZN5TCONI7Flo2ChrEPcdjjb) for TCONI::Flo2Chr(char*, double, unsigned, unsigned, bool)
    tconi.o(i._ZN5TCONI23SetCoolerPowerExtruderAEh) refers to cbus.o(i._ZN4CBUS8TransmitEcPcj) for CBUS::Transmit(char, char*, unsigned)
    tconi.o(i._ZN5TCONI23SetCoolerPowerExtruderAEh) refers to cbus.o(i._ZN4CBUS9TestReplyEc) for CBUS::TestReply(char)
    tconi.o(i._ZN5TCONI23SetCoolerPowerExtruderAEh) refers to cbus.o(.bss) for Cbus
    tconi.o(i._ZN5TCONI23SetCoolerPowerExtruderBEh) refers to dflt_clz.o(x$fpl$dfltu) for __aeabi_ui2d
    tconi.o(i._ZN5TCONI23SetCoolerPowerExtruderBEh) refers to tconi.o(i._ZN5TCONI7Flo2ChrEPcdjjb) for TCONI::Flo2Chr(char*, double, unsigned, unsigned, bool)
    tconi.o(i._ZN5TCONI23SetCoolerPowerExtruderBEh) refers to cbus.o(i._ZN4CBUS8TransmitEcPcj) for CBUS::Transmit(char, char*, unsigned)
    tconi.o(i._ZN5TCONI23SetCoolerPowerExtruderBEh) refers to cbus.o(i._ZN4CBUS9TestReplyEc) for CBUS::TestReply(char)
    tconi.o(i._ZN5TCONI23SetCoolerPowerExtruderBEh) refers to cbus.o(.bss) for Cbus
    tconi.o(i._ZN5TCONI23SetTemperatureBPSettingEt) refers to dflt_clz.o(x$fpl$dfltu) for __aeabi_ui2d
    tconi.o(i._ZN5TCONI23SetTemperatureBPSettingEt) refers to tconi.o(i._ZN5TCONI7Flo2ChrEPcdjjb) for TCONI::Flo2Chr(char*, double, unsigned, unsigned, bool)
    tconi.o(i._ZN5TCONI23SetTemperatureBPSettingEt) refers to cbus.o(i._ZN4CBUS8TransmitEcPcj) for CBUS::Transmit(char, char*, unsigned)
    tconi.o(i._ZN5TCONI23SetTemperatureBPSettingEt) refers to cbus.o(i._ZN4CBUS9TestReplyEc) for CBUS::TestReply(char)
    tconi.o(i._ZN5TCONI23SetTemperatureBPSettingEt) refers to cbus.o(.bss) for Cbus
    tconi.o(i._ZN5TCONI23SetTemperatureEASettingEt) refers to dflt_clz.o(x$fpl$dfltu) for __aeabi_ui2d
    tconi.o(i._ZN5TCONI23SetTemperatureEASettingEt) refers to tconi.o(i._ZN5TCONI7Flo2ChrEPcdjjb) for TCONI::Flo2Chr(char*, double, unsigned, unsigned, bool)
    tconi.o(i._ZN5TCONI23SetTemperatureEASettingEt) refers to cbus.o(i._ZN4CBUS8TransmitEcPcj) for CBUS::Transmit(char, char*, unsigned)
    tconi.o(i._ZN5TCONI23SetTemperatureEASettingEt) refers to cbus.o(i._ZN4CBUS9TestReplyEc) for CBUS::TestReply(char)
    tconi.o(i._ZN5TCONI23SetTemperatureEASettingEt) refers to cbus.o(.bss) for Cbus
    tconi.o(i._ZN5TCONI23SetTemperatureEBSettingEt) refers to dflt_clz.o(x$fpl$dfltu) for __aeabi_ui2d
    tconi.o(i._ZN5TCONI23SetTemperatureEBSettingEt) refers to tconi.o(i._ZN5TCONI7Flo2ChrEPcdjjb) for TCONI::Flo2Chr(char*, double, unsigned, unsigned, bool)
    tconi.o(i._ZN5TCONI23SetTemperatureEBSettingEt) refers to cbus.o(i._ZN4CBUS8TransmitEcPcj) for CBUS::Transmit(char, char*, unsigned)
    tconi.o(i._ZN5TCONI23SetTemperatureEBSettingEt) refers to cbus.o(i._ZN4CBUS9TestReplyEc) for CBUS::TestReply(char)
    tconi.o(i._ZN5TCONI23SetTemperatureEBSettingEt) refers to cbus.o(.bss) for Cbus
    tconi.o(i._ZN5TCONI25GetTemperatureEnvironmentEv) refers to cbus.o(i._ZN4CBUS8TransmitEcPcj) for CBUS::Transmit(char, char*, unsigned)
    tconi.o(i._ZN5TCONI25GetTemperatureEnvironmentEv) refers to cbus.o(i._ZN4CBUS9TestReplyEc) for CBUS::TestReply(char)
    tconi.o(i._ZN5TCONI25GetTemperatureEnvironmentEv) refers to cbus.o(i._ZN4CBUS17TestIfVerifyErrorEv) for CBUS::TestIfVerifyError()
    tconi.o(i._ZN5TCONI25GetTemperatureEnvironmentEv) refers to tconi.o(i._ZN5TCONI7Chr2FloEPcjjb) for TCONI::Chr2Flo(char*, unsigned, unsigned, bool)
    tconi.o(i._ZN5TCONI25GetTemperatureEnvironmentEv) refers to dfixu.o(x$fpl$dfixu) for __aeabi_d2uiz
    tconi.o(i._ZN5TCONI25GetTemperatureEnvironmentEv) refers to cbus.o(.bss) for Cbus
    tconi.o(i._ZN5TCONI25GetTemperatureEnvironmentEv) refers to status.o(.bss) for Status
    tconi.o(i._ZN5TCONI7Chr2FloEPcjjb) refers to dflt_clz.o(x$fpl$dflt) for __aeabi_i2d
    tconi.o(i._ZN5TCONI7Chr2FloEPcjjb) refers to dmul.o(x$fpl$dmul) for __aeabi_dmul
    tconi.o(i._ZN5TCONI7Chr2FloEPcjjb) refers to daddsub_clz.o(x$fpl$dadd) for __aeabi_dadd
    tconi.o(i._ZN5TCONI7Chr2FloEPcjjb) refers to ddiv.o(x$fpl$ddiv) for __aeabi_ddiv
    tconi.o(i._ZN5TCONI7Chr2FloEPcjjb) refers to tconi.o(.data) for Weight
    tconi.o(i._ZN5TCONI7Flo2ChrEPcdjjb) refers to drleqf.o(x$fpl$drleqf) for __aeabi_cdrcmple
    tconi.o(i._ZN5TCONI7Flo2ChrEPcdjjb) refers to dleqf.o(x$fpl$dleqf) for __aeabi_cdcmple
    tconi.o(i._ZN5TCONI7Flo2ChrEPcdjjb) refers to dfixll.o(x$fpl$llsfromd) for __aeabi_d2lz
    tconi.o(i._ZN5TCONI7Flo2ChrEPcdjjb) refers to llsdiv.o(.text) for __aeabi_ldivmod
    tconi.o(i._ZN5TCONI7Flo2ChrEPcdjjb) refers to dfltll_clz.o(x$fpl$dfltll) for __aeabi_l2d
    tconi.o(i._ZN5TCONI7Flo2ChrEPcdjjb) refers to dmul.o(x$fpl$dmul) for __aeabi_dmul
    tconi.o(i._ZN5TCONI7Flo2ChrEPcdjjb) refers to tconi.o(.data) for Weight
    tconi.o(i._ZN5TCONI8TestLinkEv) refers to cbus.o(i._ZN4CBUS8TransmitEcPcj) for CBUS::Transmit(char, char*, unsigned)
    tconi.o(i._ZN5TCONI8TestLinkEv) refers to cbus.o(i._ZN4CBUS9TestReplyEc) for CBUS::TestReply(char)
    tconi.o(i._ZN5TCONI8TestLinkEv) refers to cbus.o(.bss) for Cbus
    tconi.o(.ARM.exidx) refers to tconi.o(i._ZN5TCONI7Chr2FloEPcjjb) for i._ZN5TCONI7Chr2FloEPcjjb
    tconi.o(.ARM.exidx) refers to tconi.o(i._ZN5TCONI23GetTemperatureExtruderAEv) for i._ZN5TCONI23GetTemperatureExtruderAEv
    tconi.o(.ARM.exidx) refers to tconi.o(i._ZN5TCONI23GetTemperatureExtruderBEv) for i._ZN5TCONI23GetTemperatureExtruderBEv
    tconi.o(.ARM.exidx) refers to tconi.o(i._ZN5TCONI23GetTemperatureBasePlaneEv) for i._ZN5TCONI23GetTemperatureBasePlaneEv
    tconi.o(.ARM.exidx) refers to tconi.o(i._ZN5TCONI25GetTemperatureEnvironmentEv) for i._ZN5TCONI25GetTemperatureEnvironmentEv
    tconi.o(.ARM.exidx) refers to tconi.o(i._ZN5TCONI7Flo2ChrEPcdjjb) for i._ZN5TCONI7Flo2ChrEPcdjjb
    tconi.o(.ARM.exidx) refers to tconi.o(i._ZN5TCONI23SetTemperatureEASettingEt) for i._ZN5TCONI23SetTemperatureEASettingEt
    tconi.o(.ARM.exidx) refers to tconi.o(i._ZN5TCONI23SetTemperatureEBSettingEt) for i._ZN5TCONI23SetTemperatureEBSettingEt
    tconi.o(.ARM.exidx) refers to tconi.o(i._ZN5TCONI23SetTemperatureBPSettingEt) for i._ZN5TCONI23SetTemperatureBPSettingEt
    tconi.o(.ARM.exidx) refers to tconi.o(i._ZN5TCONI23GetTemperatureEASettingEv) for i._ZN5TCONI23GetTemperatureEASettingEv
    tconi.o(.ARM.exidx) refers to tconi.o(i._ZN5TCONI23GetTemperatureEBSettingEv) for i._ZN5TCONI23GetTemperatureEBSettingEv
    tconi.o(.ARM.exidx) refers to tconi.o(i._ZN5TCONI23GetTemperatureBPSettingEv) for i._ZN5TCONI23GetTemperatureBPSettingEv
    tconi.o(.ARM.exidx) refers to tconi.o(i._ZN5TCONI23SetCoolerPowerExtruderAEh) for i._ZN5TCONI23SetCoolerPowerExtruderAEh
    tconi.o(.ARM.exidx) refers to tconi.o(i._ZN5TCONI23SetCoolerPowerExtruderBEh) for i._ZN5TCONI23SetCoolerPowerExtruderBEh
    tconi.o(.ARM.exidx) refers to tconi.o(i._ZN5TCONI23GetCoolerPowerExtruderAEv) for i._ZN5TCONI23GetCoolerPowerExtruderAEv
    tconi.o(.ARM.exidx) refers to tconi.o(i._ZN5TCONI23GetCoolerPowerExtruderBEv) for i._ZN5TCONI23GetCoolerPowerExtruderBEv
    tconi.o(.ARM.exidx) refers to tconi.o(i._ZN5TCONI23GetHeaterPowerExtruderAEv) for i._ZN5TCONI23GetHeaterPowerExtruderAEv
    tconi.o(.ARM.exidx) refers to tconi.o(i._ZN5TCONI23GetHeaterPowerExtruderBEv) for i._ZN5TCONI23GetHeaterPowerExtruderBEv
    tconi.o(.ARM.exidx) refers to tconi.o(i._ZN5TCONI23GetHeaterPowerBasePlaneEv) for i._ZN5TCONI23GetHeaterPowerBasePlaneEv
    tconi.o(.ARM.exidx) refers to tconi.o(i._ZN5TCONI18GetStatusExtruderAEv) for i._ZN5TCONI18GetStatusExtruderAEv
    tconi.o(.ARM.exidx) refers to tconi.o(i._ZN5TCONI18GetStatusExtruderBEv) for i._ZN5TCONI18GetStatusExtruderBEv
    tconi.o(.ARM.exidx) refers to tconi.o(i._ZN5TCONI18GetStatusBasePlaneEv) for i._ZN5TCONI18GetStatusBasePlaneEv
    tconi.o(.ARM.exidx) refers to tconi.o(i._ZN5TCONI8TestLinkEv) for i._ZN5TCONI8TestLinkEv
    ibus.o(i.USART2_IRQHandler) refers to ibus.o(.bss) for Ibus
    ibus.o(i._ZN4IBUS5PrintEPc) refers to ibus.o(i._ZN4IBUS2TxEh) for IBUS::Tx(unsigned char)
    ibus.o(i._ZN4IBUS8TransmitEcPcj) refers to ibus.o(i._ZN4IBUS2TxEh) for IBUS::Tx(unsigned char)
    ibus.o(i._ZN4IBUS8TransmitEcPcj) refers to ibus.o(i._ZN4IBUS5PrintEPc) for IBUS::Print(char*)
    ibus.o(i._ZN4IBUS8TransmitEcPcj) refers to ibus.o(i._ZN4IBUS14WaitForReceiveEj) for IBUS::WaitForReceive(unsigned)
    ibus.o(.ARM.exidx) refers to ibus.o(i.USART2_IRQHandler) for i.USART2_IRQHandler
    ibus.o(.ARM.exidx) refers to ibus.o(i._ZN4IBUS4InitEv) for i._ZN4IBUS4InitEv
    ibus.o(.ARM.exidx) refers to ibus.o(i._ZN4IBUS14WaitForReceiveEj) for i._ZN4IBUS14WaitForReceiveEj
    ibus.o(.ARM.exidx) refers to ibus.o(i._ZN4IBUS2TxEh) for i._ZN4IBUS2TxEh
    ibus.o(.ARM.exidx) refers to ibus.o(i._ZN4IBUS5PrintEPc) for i._ZN4IBUS5PrintEPc
    ibus.o(.ARM.exidx) refers to ibus.o(i._ZN4IBUS8TransmitEcPcj) for i._ZN4IBUS8TransmitEcPcj
    ibus.o(.ARM.exidx) refers to ibus.o(i._ZN4IBUS9TestReplyEc) for i._ZN4IBUS9TestReplyEc
    ibus.o(.ARM.exidx) refers to ibus.o(i._ZN4IBUS17TestIfVerifyErrorEv) for i._ZN4IBUS17TestIfVerifyErrorEv
    fconi.o(i._ZN5FCONI11GetFileNameEv) refers to rt_memclr_w.o(.text) for __aeabi_memclr4
    fconi.o(i._ZN5FCONI11GetFileNameEv) refers to ibus.o(i._ZN4IBUS8TransmitEcPcj) for IBUS::Transmit(char, char*, unsigned)
    fconi.o(i._ZN5FCONI11GetFileNameEv) refers to ibus.o(i._ZN4IBUS9TestReplyEc) for IBUS::TestReply(char)
    fconi.o(i._ZN5FCONI11GetFileNameEv) refers to ibus.o(i._ZN4IBUS17TestIfVerifyErrorEv) for IBUS::TestIfVerifyError()
    fconi.o(i._ZN5FCONI11GetFileNameEv) refers to ibus.o(.bss) for Ibus
    fconi.o(i._ZN5FCONI11GetFileNameEv) refers to status.o(.bss) for Status
    fconi.o(i._ZN5FCONI11GetFileSizeEv) refers to rt_memclr_w.o(.text) for __aeabi_memclr4
    fconi.o(i._ZN5FCONI11GetFileSizeEv) refers to ibus.o(i._ZN4IBUS8TransmitEcPcj) for IBUS::Transmit(char, char*, unsigned)
    fconi.o(i._ZN5FCONI11GetFileSizeEv) refers to ibus.o(i._ZN4IBUS9TestReplyEc) for IBUS::TestReply(char)
    fconi.o(i._ZN5FCONI11GetFileSizeEv) refers to ibus.o(i._ZN4IBUS17TestIfVerifyErrorEv) for IBUS::TestIfVerifyError()
    fconi.o(i._ZN5FCONI11GetFileSizeEv) refers to fconi.o(i._ZN5FCONI12CharToNumberEhPh) for FCONI::CharToNumber(unsigned char, unsigned char*)
    fconi.o(i._ZN5FCONI11GetFileSizeEv) refers to ibus.o(.bss) for Ibus
    fconi.o(i._ZN5FCONI11GetFileSizeEv) refers to status.o(.bss) for Status
    fconi.o(i._ZN5FCONI12CharToNumberEhPh) refers to rt_memcpy_w.o(.text) for __aeabi_memcpy4
    fconi.o(i._ZN5FCONI12CharToNumberEhPh) refers to fconi.o(.constdata) for .constdata
    fconi.o(i._ZN5FCONI12FileReadLineEhPh) refers to rt_memclr_w.o(.text) for __aeabi_memclr4
    fconi.o(i._ZN5FCONI12FileReadLineEhPh) refers to ibus.o(i._ZN4IBUS8TransmitEcPcj) for IBUS::Transmit(char, char*, unsigned)
    fconi.o(i._ZN5FCONI12FileReadLineEhPh) refers to ibus.o(i._ZN4IBUS9TestReplyEc) for IBUS::TestReply(char)
    fconi.o(i._ZN5FCONI12FileReadLineEhPh) refers to ibus.o(i._ZN4IBUS17TestIfVerifyErrorEv) for IBUS::TestIfVerifyError()
    fconi.o(i._ZN5FCONI12FileReadLineEhPh) refers to ibus.o(.bss) for Ibus
    fconi.o(i._ZN5FCONI12GetFileInfo1Ev) refers to rt_memclr_w.o(.text) for __aeabi_memclr4
    fconi.o(i._ZN5FCONI12GetFileInfo1Ev) refers to ibus.o(i._ZN4IBUS8TransmitEcPcj) for IBUS::Transmit(char, char*, unsigned)
    fconi.o(i._ZN5FCONI12GetFileInfo1Ev) refers to ibus.o(i._ZN4IBUS9TestReplyEc) for IBUS::TestReply(char)
    fconi.o(i._ZN5FCONI12GetFileInfo1Ev) refers to ibus.o(i._ZN4IBUS17TestIfVerifyErrorEv) for IBUS::TestIfVerifyError()
    fconi.o(i._ZN5FCONI12GetFileInfo1Ev) refers to fconi.o(i._ZN5FCONI12CharToNumberEhPh) for FCONI::CharToNumber(unsigned char, unsigned char*)
    fconi.o(i._ZN5FCONI12GetFileInfo1Ev) refers to ibus.o(.bss) for Ibus
    fconi.o(i._ZN5FCONI12GetFileInfo1Ev) refers to status.o(.bss) for Status
    fconi.o(i._ZN5FCONI12GetFileInfo2Ev) refers to rt_memclr_w.o(.text) for __aeabi_memclr4
    fconi.o(i._ZN5FCONI12GetFileInfo2Ev) refers to ibus.o(i._ZN4IBUS8TransmitEcPcj) for IBUS::Transmit(char, char*, unsigned)
    fconi.o(i._ZN5FCONI12GetFileInfo2Ev) refers to ibus.o(i._ZN4IBUS9TestReplyEc) for IBUS::TestReply(char)
    fconi.o(i._ZN5FCONI12GetFileInfo2Ev) refers to ibus.o(i._ZN4IBUS17TestIfVerifyErrorEv) for IBUS::TestIfVerifyError()
    fconi.o(i._ZN5FCONI12GetFileInfo2Ev) refers to fconi.o(i._ZN5FCONI12CharToNumberEhPh) for FCONI::CharToNumber(unsigned char, unsigned char*)
    fconi.o(i._ZN5FCONI12GetFileInfo2Ev) refers to ibus.o(.bss) for Ibus
    fconi.o(i._ZN5FCONI12GetFileInfo2Ev) refers to status.o(.bss) for Status
    fconi.o(i._ZN5FCONI12GetFileInfo3Ev) refers to rt_memclr_w.o(.text) for __aeabi_memclr4
    fconi.o(i._ZN5FCONI12GetFileInfo3Ev) refers to ibus.o(i._ZN4IBUS8TransmitEcPcj) for IBUS::Transmit(char, char*, unsigned)
    fconi.o(i._ZN5FCONI12GetFileInfo3Ev) refers to ibus.o(i._ZN4IBUS9TestReplyEc) for IBUS::TestReply(char)
    fconi.o(i._ZN5FCONI12GetFileInfo3Ev) refers to ibus.o(i._ZN4IBUS17TestIfVerifyErrorEv) for IBUS::TestIfVerifyError()
    fconi.o(i._ZN5FCONI12GetFileInfo3Ev) refers to fconi.o(i._ZN5FCONI12CharToNumberEhPh) for FCONI::CharToNumber(unsigned char, unsigned char*)
    fconi.o(i._ZN5FCONI12GetFileInfo3Ev) refers to ibus.o(.bss) for Ibus
    fconi.o(i._ZN5FCONI12GetFileInfo3Ev) refers to status.o(.bss) for Status
    fconi.o(i._ZN5FCONI12GetFileInfo4Ev) refers to rt_memclr_w.o(.text) for __aeabi_memclr4
    fconi.o(i._ZN5FCONI12GetFileInfo4Ev) refers to ibus.o(i._ZN4IBUS8TransmitEcPcj) for IBUS::Transmit(char, char*, unsigned)
    fconi.o(i._ZN5FCONI12GetFileInfo4Ev) refers to ibus.o(i._ZN4IBUS9TestReplyEc) for IBUS::TestReply(char)
    fconi.o(i._ZN5FCONI12GetFileInfo4Ev) refers to ibus.o(i._ZN4IBUS17TestIfVerifyErrorEv) for IBUS::TestIfVerifyError()
    fconi.o(i._ZN5FCONI12GetFileInfo4Ev) refers to fconi.o(i._ZN5FCONI12CharToNumberEhPh) for FCONI::CharToNumber(unsigned char, unsigned char*)
    fconi.o(i._ZN5FCONI12GetFileInfo4Ev) refers to ibus.o(.bss) for Ibus
    fconi.o(i._ZN5FCONI12GetFileInfo4Ev) refers to status.o(.bss) for Status
    fconi.o(i._ZN5FCONI12GetFileInfo5Ev) refers to rt_memclr_w.o(.text) for __aeabi_memclr4
    fconi.o(i._ZN5FCONI12GetFileInfo5Ev) refers to ibus.o(i._ZN4IBUS8TransmitEcPcj) for IBUS::Transmit(char, char*, unsigned)
    fconi.o(i._ZN5FCONI12GetFileInfo5Ev) refers to ibus.o(i._ZN4IBUS9TestReplyEc) for IBUS::TestReply(char)
    fconi.o(i._ZN5FCONI12GetFileInfo5Ev) refers to ibus.o(i._ZN4IBUS17TestIfVerifyErrorEv) for IBUS::TestIfVerifyError()
    fconi.o(i._ZN5FCONI12GetFileInfo5Ev) refers to fconi.o(i._ZN5FCONI12CharToNumberEhPh) for FCONI::CharToNumber(unsigned char, unsigned char*)
    fconi.o(i._ZN5FCONI12GetFileInfo5Ev) refers to ibus.o(.bss) for Ibus
    fconi.o(i._ZN5FCONI12GetFileInfo5Ev) refers to status.o(.bss) for Status
    fconi.o(i._ZN5FCONI12GetFileInfo6Ev) refers to rt_memclr_w.o(.text) for __aeabi_memclr4
    fconi.o(i._ZN5FCONI12GetFileInfo6Ev) refers to ibus.o(i._ZN4IBUS8TransmitEcPcj) for IBUS::Transmit(char, char*, unsigned)
    fconi.o(i._ZN5FCONI12GetFileInfo6Ev) refers to ibus.o(i._ZN4IBUS9TestReplyEc) for IBUS::TestReply(char)
    fconi.o(i._ZN5FCONI12GetFileInfo6Ev) refers to ibus.o(i._ZN4IBUS17TestIfVerifyErrorEv) for IBUS::TestIfVerifyError()
    fconi.o(i._ZN5FCONI12GetFileInfo6Ev) refers to fconi.o(i._ZN5FCONI12CharToNumberEhPh) for FCONI::CharToNumber(unsigned char, unsigned char*)
    fconi.o(i._ZN5FCONI12GetFileInfo6Ev) refers to ibus.o(.bss) for Ibus
    fconi.o(i._ZN5FCONI12GetFileInfo6Ev) refers to status.o(.bss) for Status
    fconi.o(i._ZN5FCONI12NumberToCharEhjPh) refers to rt_memcpy_w.o(.text) for __aeabi_memcpy4
    fconi.o(i._ZN5FCONI12NumberToCharEhjPh) refers to lludivv7m.o(.text) for __aeabi_uldivmod
    fconi.o(i._ZN5FCONI12NumberToCharEhjPh) refers to fconi.o(.constdata) for .constdata
    fconi.o(i._ZN5FCONI13GetRestVolumeEv) refers to rt_memclr_w.o(.text) for __aeabi_memclr4
    fconi.o(i._ZN5FCONI13GetRestVolumeEv) refers to ibus.o(i._ZN4IBUS8TransmitEcPcj) for IBUS::Transmit(char, char*, unsigned)
    fconi.o(i._ZN5FCONI13GetRestVolumeEv) refers to ibus.o(i._ZN4IBUS9TestReplyEc) for IBUS::TestReply(char)
    fconi.o(i._ZN5FCONI13GetRestVolumeEv) refers to ibus.o(i._ZN4IBUS17TestIfVerifyErrorEv) for IBUS::TestIfVerifyError()
    fconi.o(i._ZN5FCONI13GetRestVolumeEv) refers to fconi.o(i._ZN5FCONI12CharToNumberEhPh) for FCONI::CharToNumber(unsigned char, unsigned char*)
    fconi.o(i._ZN5FCONI13GetRestVolumeEv) refers to ibus.o(.bss) for Ibus
    fconi.o(i._ZN5FCONI13GetRestVolumeEv) refers to status.o(.bss) for Status
    fconi.o(i._ZN5FCONI14GetFilePointerEv) refers to rt_memclr_w.o(.text) for __aeabi_memclr4
    fconi.o(i._ZN5FCONI14GetFilePointerEv) refers to ibus.o(i._ZN4IBUS8TransmitEcPcj) for IBUS::Transmit(char, char*, unsigned)
    fconi.o(i._ZN5FCONI14GetFilePointerEv) refers to ibus.o(i._ZN4IBUS9TestReplyEc) for IBUS::TestReply(char)
    fconi.o(i._ZN5FCONI14GetFilePointerEv) refers to ibus.o(i._ZN4IBUS17TestIfVerifyErrorEv) for IBUS::TestIfVerifyError()
    fconi.o(i._ZN5FCONI14GetFilePointerEv) refers to fconi.o(i._ZN5FCONI12CharToNumberEhPh) for FCONI::CharToNumber(unsigned char, unsigned char*)
    fconi.o(i._ZN5FCONI14GetFilePointerEv) refers to ibus.o(.bss) for Ibus
    fconi.o(i._ZN5FCONI14GetFilePointerEv) refers to status.o(.bss) for Status
    fconi.o(i._ZN5FCONI14GetTotalVolumeEv) refers to rt_memclr_w.o(.text) for __aeabi_memclr4
    fconi.o(i._ZN5FCONI14GetTotalVolumeEv) refers to ibus.o(i._ZN4IBUS8TransmitEcPcj) for IBUS::Transmit(char, char*, unsigned)
    fconi.o(i._ZN5FCONI14GetTotalVolumeEv) refers to ibus.o(i._ZN4IBUS9TestReplyEc) for IBUS::TestReply(char)
    fconi.o(i._ZN5FCONI14GetTotalVolumeEv) refers to ibus.o(i._ZN4IBUS17TestIfVerifyErrorEv) for IBUS::TestIfVerifyError()
    fconi.o(i._ZN5FCONI14GetTotalVolumeEv) refers to fconi.o(i._ZN5FCONI12CharToNumberEhPh) for FCONI::CharToNumber(unsigned char, unsigned char*)
    fconi.o(i._ZN5FCONI14GetTotalVolumeEv) refers to ibus.o(.bss) for Ibus
    fconi.o(i._ZN5FCONI14GetTotalVolumeEv) refers to status.o(.bss) for Status
    fconi.o(i._ZN5FCONI15FilePointerSeekEbj) refers to rt_memclr_w.o(.text) for __aeabi_memclr4
    fconi.o(i._ZN5FCONI15FilePointerSeekEbj) refers to fconi.o(i._ZN5FCONI12NumberToCharEhjPh) for FCONI::NumberToChar(unsigned char, unsigned, unsigned char*)
    fconi.o(i._ZN5FCONI15FilePointerSeekEbj) refers to ibus.o(i._ZN4IBUS8TransmitEcPcj) for IBUS::Transmit(char, char*, unsigned)
    fconi.o(i._ZN5FCONI15FilePointerSeekEbj) refers to ibus.o(i._ZN4IBUS9TestReplyEc) for IBUS::TestReply(char)
    fconi.o(i._ZN5FCONI15FilePointerSeekEbj) refers to ibus.o(i._ZN4IBUS17TestIfVerifyErrorEv) for IBUS::TestIfVerifyError()
    fconi.o(i._ZN5FCONI15FilePointerSeekEbj) refers to ibus.o(.bss) for Ibus
    fconi.o(i._ZN5FCONI19GetFileEstimateTimeEv) refers to rt_memclr_w.o(.text) for __aeabi_memclr4
    fconi.o(i._ZN5FCONI19GetFileEstimateTimeEv) refers to ibus.o(i._ZN4IBUS8TransmitEcPcj) for IBUS::Transmit(char, char*, unsigned)
    fconi.o(i._ZN5FCONI19GetFileEstimateTimeEv) refers to ibus.o(i._ZN4IBUS9TestReplyEc) for IBUS::TestReply(char)
    fconi.o(i._ZN5FCONI19GetFileEstimateTimeEv) refers to ibus.o(i._ZN4IBUS17TestIfVerifyErrorEv) for IBUS::TestIfVerifyError()
    fconi.o(i._ZN5FCONI19GetFileEstimateTimeEv) refers to fconi.o(i._ZN5FCONI12CharToNumberEhPh) for FCONI::CharToNumber(unsigned char, unsigned char*)
    fconi.o(i._ZN5FCONI19GetFileEstimateTimeEv) refers to ibus.o(.bss) for Ibus
    fconi.o(i._ZN5FCONI19GetFileEstimateTimeEv) refers to status.o(.bss) for Status
    fconi.o(i._ZN5FCONI20GetFileCommandNumberEv) refers to rt_memclr_w.o(.text) for __aeabi_memclr4
    fconi.o(i._ZN5FCONI20GetFileCommandNumberEv) refers to ibus.o(i._ZN4IBUS8TransmitEcPcj) for IBUS::Transmit(char, char*, unsigned)
    fconi.o(i._ZN5FCONI20GetFileCommandNumberEv) refers to ibus.o(i._ZN4IBUS9TestReplyEc) for IBUS::TestReply(char)
    fconi.o(i._ZN5FCONI20GetFileCommandNumberEv) refers to ibus.o(i._ZN4IBUS17TestIfVerifyErrorEv) for IBUS::TestIfVerifyError()
    fconi.o(i._ZN5FCONI20GetFileCommandNumberEv) refers to fconi.o(i._ZN5FCONI12CharToNumberEhPh) for FCONI::CharToNumber(unsigned char, unsigned char*)
    fconi.o(i._ZN5FCONI20GetFileCommandNumberEv) refers to ibus.o(.bss) for Ibus
    fconi.o(i._ZN5FCONI20GetFileCommandNumberEv) refers to status.o(.bss) for Status
    fconi.o(i._ZN5FCONI20GetFileTotalDistanceEv) refers to rt_memclr_w.o(.text) for __aeabi_memclr4
    fconi.o(i._ZN5FCONI20GetFileTotalDistanceEv) refers to ibus.o(i._ZN4IBUS8TransmitEcPcj) for IBUS::Transmit(char, char*, unsigned)
    fconi.o(i._ZN5FCONI20GetFileTotalDistanceEv) refers to ibus.o(i._ZN4IBUS9TestReplyEc) for IBUS::TestReply(char)
    fconi.o(i._ZN5FCONI20GetFileTotalDistanceEv) refers to ibus.o(i._ZN4IBUS17TestIfVerifyErrorEv) for IBUS::TestIfVerifyError()
    fconi.o(i._ZN5FCONI20GetFileTotalDistanceEv) refers to fconi.o(i._ZN5FCONI12CharToNumberEhPh) for FCONI::CharToNumber(unsigned char, unsigned char*)
    fconi.o(i._ZN5FCONI20GetFileTotalDistanceEv) refers to ibus.o(.bss) for Ibus
    fconi.o(i._ZN5FCONI20GetFileTotalDistanceEv) refers to status.o(.bss) for Status
    fconi.o(i._ZN5FCONI8FileOpenEv) refers to rt_memclr_w.o(.text) for __aeabi_memclr4
    fconi.o(i._ZN5FCONI8FileOpenEv) refers to ibus.o(i._ZN4IBUS8TransmitEcPcj) for IBUS::Transmit(char, char*, unsigned)
    fconi.o(i._ZN5FCONI8FileOpenEv) refers to ibus.o(i._ZN4IBUS9TestReplyEc) for IBUS::TestReply(char)
    fconi.o(i._ZN5FCONI8FileOpenEv) refers to ibus.o(i._ZN4IBUS17TestIfVerifyErrorEv) for IBUS::TestIfVerifyError()
    fconi.o(i._ZN5FCONI8FileOpenEv) refers to ibus.o(.bss) for Ibus
    fconi.o(i._ZN5FCONI8FileOpenEv) refers to status.o(.bss) for Status
    fconi.o(i._ZN5FCONI8FileReadEhPh) refers to rt_memclr_w.o(.text) for __aeabi_memclr4
    fconi.o(i._ZN5FCONI8FileReadEhPh) refers to fconi.o(i._ZN5FCONI12NumberToCharEhjPh) for FCONI::NumberToChar(unsigned char, unsigned, unsigned char*)
    fconi.o(i._ZN5FCONI8FileReadEhPh) refers to ibus.o(i._ZN4IBUS8TransmitEcPcj) for IBUS::Transmit(char, char*, unsigned)
    fconi.o(i._ZN5FCONI8FileReadEhPh) refers to ibus.o(i._ZN4IBUS9TestReplyEc) for IBUS::TestReply(char)
    fconi.o(i._ZN5FCONI8FileReadEhPh) refers to ibus.o(i._ZN4IBUS17TestIfVerifyErrorEv) for IBUS::TestIfVerifyError()
    fconi.o(i._ZN5FCONI8FileReadEhPh) refers to ibus.o(.bss) for Ibus
    fconi.o(i._ZN5FCONI8FileTestEv) refers to rt_memclr_w.o(.text) for __aeabi_memclr4
    fconi.o(i._ZN5FCONI8FileTestEv) refers to ibus.o(i._ZN4IBUS8TransmitEcPcj) for IBUS::Transmit(char, char*, unsigned)
    fconi.o(i._ZN5FCONI8FileTestEv) refers to ibus.o(i._ZN4IBUS9TestReplyEc) for IBUS::TestReply(char)
    fconi.o(i._ZN5FCONI8FileTestEv) refers to ibus.o(i._ZN4IBUS17TestIfVerifyErrorEv) for IBUS::TestIfVerifyError()
    fconi.o(i._ZN5FCONI8FileTestEv) refers to ibus.o(.bss) for Ibus
    fconi.o(i._ZN5FCONI8FileTestEv) refers to status.o(.bss) for Status
    fconi.o(i._ZN5FCONI8TestLinkEv) refers to ibus.o(i._ZN4IBUS8TransmitEcPcj) for IBUS::Transmit(char, char*, unsigned)
    fconi.o(i._ZN5FCONI8TestLinkEv) refers to ibus.o(i._ZN4IBUS9TestReplyEc) for IBUS::TestReply(char)
    fconi.o(i._ZN5FCONI8TestLinkEv) refers to ibus.o(.bss) for Ibus
    fconi.o(.ARM.exidx) refers to fconi.o(i._ZN5FCONI12CharToNumberEhPh) for i._ZN5FCONI12CharToNumberEhPh
    fconi.o(.ARM.exidx) refers to fconi.o(i._ZN5FCONI14GetTotalVolumeEv) for i._ZN5FCONI14GetTotalVolumeEv
    fconi.o(.ARM.exidx) refers to fconi.o(i._ZN5FCONI13GetRestVolumeEv) for i._ZN5FCONI13GetRestVolumeEv
    fconi.o(.ARM.exidx) refers to fconi.o(i._ZN5FCONI11GetFileNameEv) for i._ZN5FCONI11GetFileNameEv
    fconi.o(.ARM.exidx) refers to fconi.o(i._ZN5FCONI11GetFileSizeEv) for i._ZN5FCONI11GetFileSizeEv
    fconi.o(.ARM.exidx) refers to fconi.o(i._ZN5FCONI20GetFileCommandNumberEv) for i._ZN5FCONI20GetFileCommandNumberEv
    fconi.o(.ARM.exidx) refers to fconi.o(i._ZN5FCONI19GetFileEstimateTimeEv) for i._ZN5FCONI19GetFileEstimateTimeEv
    fconi.o(.ARM.exidx) refers to fconi.o(i._ZN5FCONI20GetFileTotalDistanceEv) for i._ZN5FCONI20GetFileTotalDistanceEv
    fconi.o(.ARM.exidx) refers to fconi.o(i._ZN5FCONI12GetFileInfo1Ev) for i._ZN5FCONI12GetFileInfo1Ev
    fconi.o(.ARM.exidx) refers to fconi.o(i._ZN5FCONI12GetFileInfo2Ev) for i._ZN5FCONI12GetFileInfo2Ev
    fconi.o(.ARM.exidx) refers to fconi.o(i._ZN5FCONI12GetFileInfo3Ev) for i._ZN5FCONI12GetFileInfo3Ev
    fconi.o(.ARM.exidx) refers to fconi.o(i._ZN5FCONI12GetFileInfo4Ev) for i._ZN5FCONI12GetFileInfo4Ev
    fconi.o(.ARM.exidx) refers to fconi.o(i._ZN5FCONI12GetFileInfo5Ev) for i._ZN5FCONI12GetFileInfo5Ev
    fconi.o(.ARM.exidx) refers to fconi.o(i._ZN5FCONI12GetFileInfo6Ev) for i._ZN5FCONI12GetFileInfo6Ev
    fconi.o(.ARM.exidx) refers to fconi.o(i._ZN5FCONI14GetFilePointerEv) for i._ZN5FCONI14GetFilePointerEv
    fconi.o(.ARM.exidx) refers to fconi.o(i._ZN5FCONI8FileOpenEv) for i._ZN5FCONI8FileOpenEv
    fconi.o(.ARM.exidx) refers to fconi.o(i._ZN5FCONI8FileTestEv) for i._ZN5FCONI8FileTestEv
    fconi.o(.ARM.exidx) refers to fconi.o(i._ZN5FCONI12NumberToCharEhjPh) for i._ZN5FCONI12NumberToCharEhjPh
    fconi.o(.ARM.exidx) refers to fconi.o(i._ZN5FCONI8FileReadEhPh) for i._ZN5FCONI8FileReadEhPh
    fconi.o(.ARM.exidx) refers to fconi.o(i._ZN5FCONI12FileReadLineEhPh) for i._ZN5FCONI12FileReadLineEhPh
    fconi.o(.ARM.exidx) refers to fconi.o(i._ZN5FCONI15FilePointerSeekEbj) for i._ZN5FCONI15FilePointerSeekEbj
    fconi.o(.ARM.exidx) refers to fconi.o(i._ZN5FCONI8TestLinkEv) for i._ZN5FCONI8TestLinkEv
    cconi.o(i._ZN5CCONI10GetCommandEv) refers to ibus.o(i._ZN4IBUS8TransmitEcPcj) for IBUS::Transmit(char, char*, unsigned)
    cconi.o(i._ZN5CCONI10GetCommandEv) refers to ibus.o(i._ZN4IBUS9TestReplyEc) for IBUS::TestReply(char)
    cconi.o(i._ZN5CCONI10GetCommandEv) refers to ibus.o(i._ZN4IBUS17TestIfVerifyErrorEv) for IBUS::TestIfVerifyError()
    cconi.o(i._ZN5CCONI10GetCommandEv) refers to shell.o(i._ZN5SHELL5FlushEv) for SHELL::Flush()
    cconi.o(i._ZN5CCONI10GetCommandEv) refers to ibus.o(.bss) for Ibus
    cconi.o(i._ZN5CCONI10GetCommandEv) refers to shell.o(.bss) for Shell
    cconi.o(i._ZN5CCONI12SetStatusBarEv) refers to rt_memclr_w.o(.text) for __aeabi_memclr4
    cconi.o(i._ZN5CCONI12SetStatusBarEv) refers to ibus.o(i._ZN4IBUS8TransmitEcPcj) for IBUS::Transmit(char, char*, unsigned)
    cconi.o(i._ZN5CCONI12SetStatusBarEv) refers to ibus.o(i._ZN4IBUS9TestReplyEc) for IBUS::TestReply(char)
    cconi.o(i._ZN5CCONI12SetStatusBarEv) refers to ibus.o(i._ZN4IBUS17TestIfVerifyErrorEv) for IBUS::TestIfVerifyError()
    cconi.o(i._ZN5CCONI12SetStatusBarEv) refers to status.o(.bss) for Status
    cconi.o(i._ZN5CCONI12SetStatusBarEv) refers to ibus.o(.bss) for Ibus
    cconi.o(i._ZN5CCONI13HangUpConsoleEv) refers to ibus.o(i._ZN4IBUS8TransmitEcPcj) for IBUS::Transmit(char, char*, unsigned)
    cconi.o(i._ZN5CCONI13HangUpConsoleEv) refers to ibus.o(i._ZN4IBUS9TestReplyEc) for IBUS::TestReply(char)
    cconi.o(i._ZN5CCONI13HangUpConsoleEv) refers to ibus.o(i._ZN4IBUS17TestIfVerifyErrorEv) for IBUS::TestIfVerifyError()
    cconi.o(i._ZN5CCONI13HangUpConsoleEv) refers to ibus.o(.bss) for Ibus
    cconi.o(i._ZN5CCONI13SetInfoScreenEv) refers to cconi.o(i._ZN5CCONI7Num2ChrEjPc) for CCONI::Num2Chr(unsigned, char*)
    cconi.o(i._ZN5CCONI13SetInfoScreenEv) refers to daddsub_clz.o(x$fpl$dadd) for __aeabi_dadd
    cconi.o(i._ZN5CCONI13SetInfoScreenEv) refers to dfixu.o(x$fpl$dfixu) for __aeabi_d2uiz
    cconi.o(i._ZN5CCONI13SetInfoScreenEv) refers to ibus.o(i._ZN4IBUS8TransmitEcPcj) for IBUS::Transmit(char, char*, unsigned)
    cconi.o(i._ZN5CCONI13SetInfoScreenEv) refers to ibus.o(i._ZN4IBUS9TestReplyEc) for IBUS::TestReply(char)
    cconi.o(i._ZN5CCONI13SetInfoScreenEv) refers to ibus.o(i._ZN4IBUS17TestIfVerifyErrorEv) for IBUS::TestIfVerifyError()
    cconi.o(i._ZN5CCONI13SetInfoScreenEv) refers to status.o(.bss) for Status
    cconi.o(i._ZN5CCONI13SetInfoScreenEv) refers to ibus.o(.bss) for Ibus
    cconi.o(i._ZN5CCONI14ConsoleDisplayEPcb) refers to ibus.o(i._ZN4IBUS8TransmitEcPcj) for IBUS::Transmit(char, char*, unsigned)
    cconi.o(i._ZN5CCONI14ConsoleDisplayEPcb) refers to ibus.o(i._ZN4IBUS9TestReplyEc) for IBUS::TestReply(char)
    cconi.o(i._ZN5CCONI14ConsoleDisplayEPcb) refers to ibus.o(i._ZN4IBUS17TestIfVerifyErrorEv) for IBUS::TestIfVerifyError()
    cconi.o(i._ZN5CCONI14ConsoleDisplayEPcb) refers to ibus.o(.bss) for Ibus
    cconi.o(i._ZN5CCONI16ExpandDictionaryEPc) refers to ibus.o(i._ZN4IBUS8TransmitEcPcj) for IBUS::Transmit(char, char*, unsigned)
    cconi.o(i._ZN5CCONI16ExpandDictionaryEPc) refers to ibus.o(i._ZN4IBUS9TestReplyEc) for IBUS::TestReply(char)
    cconi.o(i._ZN5CCONI16ExpandDictionaryEPc) refers to ibus.o(i._ZN4IBUS17TestIfVerifyErrorEv) for IBUS::TestIfVerifyError()
    cconi.o(i._ZN5CCONI16ExpandDictionaryEPc) refers to ibus.o(.bss) for Ibus
    cconi.o(i._ZN5CCONI16GetSwitchAStatusEv) refers to ibus.o(i._ZN4IBUS8TransmitEcPcj) for IBUS::Transmit(char, char*, unsigned)
    cconi.o(i._ZN5CCONI16GetSwitchAStatusEv) refers to ibus.o(i._ZN4IBUS9TestReplyEc) for IBUS::TestReply(char)
    cconi.o(i._ZN5CCONI16GetSwitchAStatusEv) refers to ibus.o(i._ZN4IBUS17TestIfVerifyErrorEv) for IBUS::TestIfVerifyError()
    cconi.o(i._ZN5CCONI16GetSwitchAStatusEv) refers to ibus.o(.bss) for Ibus
    cconi.o(i._ZN5CCONI16GetSwitchAStatusEv) refers to status.o(.bss) for Status
    cconi.o(i._ZN5CCONI16GetSwitchBStatusEv) refers to ibus.o(i._ZN4IBUS8TransmitEcPcj) for IBUS::Transmit(char, char*, unsigned)
    cconi.o(i._ZN5CCONI16GetSwitchBStatusEv) refers to ibus.o(i._ZN4IBUS9TestReplyEc) for IBUS::TestReply(char)
    cconi.o(i._ZN5CCONI16GetSwitchBStatusEv) refers to ibus.o(i._ZN4IBUS17TestIfVerifyErrorEv) for IBUS::TestIfVerifyError()
    cconi.o(i._ZN5CCONI16GetSwitchBStatusEv) refers to ibus.o(.bss) for Ibus
    cconi.o(i._ZN5CCONI16GetSwitchBStatusEv) refers to status.o(.bss) for Status
    cconi.o(i._ZN5CCONI7Chr2FloEPcjjb) refers to dflt_clz.o(x$fpl$dflt) for __aeabi_i2d
    cconi.o(i._ZN5CCONI7Chr2FloEPcjjb) refers to dmul.o(x$fpl$dmul) for __aeabi_dmul
    cconi.o(i._ZN5CCONI7Chr2FloEPcjjb) refers to daddsub_clz.o(x$fpl$dadd) for __aeabi_dadd
    cconi.o(i._ZN5CCONI7Chr2FloEPcjjb) refers to ddiv.o(x$fpl$ddiv) for __aeabi_ddiv
    cconi.o(i._ZN5CCONI7Chr2FloEPcjjb) refers to cconi.o(.data) for Weight
    cconi.o(i._ZN5CCONI7Flo2ChrEPcdjjb) refers to drleqf.o(x$fpl$drleqf) for __aeabi_cdrcmple
    cconi.o(i._ZN5CCONI7Flo2ChrEPcdjjb) refers to dleqf.o(x$fpl$dleqf) for __aeabi_cdcmple
    cconi.o(i._ZN5CCONI7Flo2ChrEPcdjjb) refers to dfixll.o(x$fpl$llsfromd) for __aeabi_d2lz
    cconi.o(i._ZN5CCONI7Flo2ChrEPcdjjb) refers to llsdiv.o(.text) for __aeabi_ldivmod
    cconi.o(i._ZN5CCONI7Flo2ChrEPcdjjb) refers to dfltll_clz.o(x$fpl$dfltll) for __aeabi_l2d
    cconi.o(i._ZN5CCONI7Flo2ChrEPcdjjb) refers to dmul.o(x$fpl$dmul) for __aeabi_dmul
    cconi.o(i._ZN5CCONI7Flo2ChrEPcdjjb) refers to cconi.o(.data) for Weight
    cconi.o(i._ZN5CCONI7Num2ChrEjPc) refers to cconi.o(.constdata) for Weight
    cconi.o(i._ZN5CCONI8TestLinkEv) refers to ibus.o(i._ZN4IBUS8TransmitEcPcj) for IBUS::Transmit(char, char*, unsigned)
    cconi.o(i._ZN5CCONI8TestLinkEv) refers to ibus.o(i._ZN4IBUS9TestReplyEc) for IBUS::TestReply(char)
    cconi.o(i._ZN5CCONI8TestLinkEv) refers to ibus.o(.bss) for Ibus
    cconi.o(.ARM.exidx) refers to cconi.o(i._ZN5CCONI10GetCommandEv) for i._ZN5CCONI10GetCommandEv
    cconi.o(.ARM.exidx) refers to cconi.o(i._ZN5CCONI12SetStatusBarEv) for i._ZN5CCONI12SetStatusBarEv
    cconi.o(.ARM.exidx) refers to cconi.o(i._ZN5CCONI7Num2ChrEjPc) for i._ZN5CCONI7Num2ChrEjPc
    cconi.o(.ARM.exidx) refers to cconi.o(i._ZN5CCONI13SetInfoScreenEv) for i._ZN5CCONI13SetInfoScreenEv
    cconi.o(.ARM.exidx) refers to cconi.o(i._ZN5CCONI14ConsoleDisplayEPcb) for i._ZN5CCONI14ConsoleDisplayEPcb
    cconi.o(.ARM.exidx) refers to cconi.o(i._ZN5CCONI13HangUpConsoleEv) for i._ZN5CCONI13HangUpConsoleEv
    cconi.o(.ARM.exidx) refers to cconi.o(i._ZN5CCONI16ExpandDictionaryEPc) for i._ZN5CCONI16ExpandDictionaryEPc
    cconi.o(.ARM.exidx) refers to cconi.o(i._ZN5CCONI16GetSwitchAStatusEv) for i._ZN5CCONI16GetSwitchAStatusEv
    cconi.o(.ARM.exidx) refers to cconi.o(i._ZN5CCONI16GetSwitchBStatusEv) for i._ZN5CCONI16GetSwitchBStatusEv
    cconi.o(.ARM.exidx) refers to cconi.o(i._ZN5CCONI8TestLinkEv) for i._ZN5CCONI8TestLinkEv
    cconi.o(.ARM.exidx) refers to cconi.o(i._ZN5CCONI7Flo2ChrEPcdjjb) for i._ZN5CCONI7Flo2ChrEPcdjjb
    cconi.o(.ARM.exidx) refers to cconi.o(i._ZN5CCONI7Chr2FloEPcjjb) for i._ZN5CCONI7Chr2FloEPcjjb
    abus.o(i.USART1_IRQHandler) refers to abus.o(.bss) for Abus
    abus.o(i._ZN4ABUS5PrintEPc) refers to abus.o(i._ZN4ABUS2TxEh) for ABUS::Tx(unsigned char)
    abus.o(i._ZN4ABUS8TransmitEcPcj) refers to abus.o(i._ZN4ABUS2TxEh) for ABUS::Tx(unsigned char)
    abus.o(i._ZN4ABUS8TransmitEcPcj) refers to abus.o(i._ZN4ABUS5PrintEPc) for ABUS::Print(char*)
    abus.o(i._ZN4ABUS8TransmitEcPcj) refers to abus.o(i._ZN4ABUS14WaitForReceiveEj) for ABUS::WaitForReceive(unsigned)
    abus.o(.ARM.exidx) refers to abus.o(i.USART1_IRQHandler) for i.USART1_IRQHandler
    abus.o(.ARM.exidx) refers to abus.o(i._ZN4ABUS4InitEv) for i._ZN4ABUS4InitEv
    abus.o(.ARM.exidx) refers to abus.o(i._ZN4ABUS14WaitForReceiveEj) for i._ZN4ABUS14WaitForReceiveEj
    abus.o(.ARM.exidx) refers to abus.o(i._ZN4ABUS2TxEh) for i._ZN4ABUS2TxEh
    abus.o(.ARM.exidx) refers to abus.o(i._ZN4ABUS5PrintEPc) for i._ZN4ABUS5PrintEPc
    abus.o(.ARM.exidx) refers to abus.o(i._ZN4ABUS8TransmitEcPcj) for i._ZN4ABUS8TransmitEcPcj
    abus.o(.ARM.exidx) refers to abus.o(i._ZN4ABUS9TestReplyEc) for i._ZN4ABUS9TestReplyEc
    abus.o(.ARM.exidx) refers to abus.o(i._ZN4ABUS17TestIfVerifyErrorEv) for i._ZN4ABUS17TestIfVerifyErrorEv
    auxio.o(i._ZN5AUXIO18GetStatusMaterialAEv) refers to abus.o(i._ZN4ABUS8TransmitEcPcj) for ABUS::Transmit(char, char*, unsigned)
    auxio.o(i._ZN5AUXIO18GetStatusMaterialAEv) refers to abus.o(i._ZN4ABUS9TestReplyEc) for ABUS::TestReply(char)
    auxio.o(i._ZN5AUXIO18GetStatusMaterialAEv) refers to abus.o(i._ZN4ABUS17TestIfVerifyErrorEv) for ABUS::TestIfVerifyError()
    auxio.o(i._ZN5AUXIO18GetStatusMaterialAEv) refers to abus.o(.bss) for Abus
    auxio.o(i._ZN5AUXIO18GetStatusMaterialAEv) refers to status.o(.bss) for Status
    auxio.o(i._ZN5AUXIO18GetStatusMaterialBEv) refers to abus.o(i._ZN4ABUS8TransmitEcPcj) for ABUS::Transmit(char, char*, unsigned)
    auxio.o(i._ZN5AUXIO18GetStatusMaterialBEv) refers to abus.o(i._ZN4ABUS9TestReplyEc) for ABUS::TestReply(char)
    auxio.o(i._ZN5AUXIO18GetStatusMaterialBEv) refers to abus.o(i._ZN4ABUS17TestIfVerifyErrorEv) for ABUS::TestIfVerifyError()
    auxio.o(i._ZN5AUXIO18GetStatusMaterialBEv) refers to abus.o(.bss) for Abus
    auxio.o(i._ZN5AUXIO18GetStatusMaterialBEv) refers to status.o(.bss) for Status
    auxio.o(i._ZN5AUXIO18SetStatusMainLightEb) refers to abus.o(i._ZN4ABUS8TransmitEcPcj) for ABUS::Transmit(char, char*, unsigned)
    auxio.o(i._ZN5AUXIO18SetStatusMainLightEb) refers to abus.o(i._ZN4ABUS9TestReplyEc) for ABUS::TestReply(char)
    auxio.o(i._ZN5AUXIO18SetStatusMainLightEb) refers to abus.o(i._ZN4ABUS17TestIfVerifyErrorEv) for ABUS::TestIfVerifyError()
    auxio.o(i._ZN5AUXIO18SetStatusMainLightEb) refers to abus.o(.bss) for Abus
    auxio.o(i._ZN5AUXIO23SetStatusAuxiliaryLightEb) refers to abus.o(i._ZN4ABUS8TransmitEcPcj) for ABUS::Transmit(char, char*, unsigned)
    auxio.o(i._ZN5AUXIO23SetStatusAuxiliaryLightEb) refers to abus.o(i._ZN4ABUS9TestReplyEc) for ABUS::TestReply(char)
    auxio.o(i._ZN5AUXIO23SetStatusAuxiliaryLightEb) refers to abus.o(i._ZN4ABUS17TestIfVerifyErrorEv) for ABUS::TestIfVerifyError()
    auxio.o(i._ZN5AUXIO23SetStatusAuxiliaryLightEb) refers to abus.o(.bss) for Abus
    auxio.o(i._ZN5AUXIO8TestLinkEv) refers to abus.o(i._ZN4ABUS8TransmitEcPcj) for ABUS::Transmit(char, char*, unsigned)
    auxio.o(i._ZN5AUXIO8TestLinkEv) refers to abus.o(i._ZN4ABUS9TestReplyEc) for ABUS::TestReply(char)
    auxio.o(i._ZN5AUXIO8TestLinkEv) refers to abus.o(.bss) for Abus
    auxio.o(.ARM.exidx) refers to auxio.o(i._ZN5AUXIO18GetStatusMaterialAEv) for i._ZN5AUXIO18GetStatusMaterialAEv
    auxio.o(.ARM.exidx) refers to auxio.o(i._ZN5AUXIO18GetStatusMaterialBEv) for i._ZN5AUXIO18GetStatusMaterialBEv
    auxio.o(.ARM.exidx) refers to auxio.o(i._ZN5AUXIO18SetStatusMainLightEb) for i._ZN5AUXIO18SetStatusMainLightEb
    auxio.o(.ARM.exidx) refers to auxio.o(i._ZN5AUXIO23SetStatusAuxiliaryLightEb) for i._ZN5AUXIO23SetStatusAuxiliaryLightEb
    auxio.o(.ARM.exidx) refers to auxio.o(i._ZN5AUXIO8TestLinkEv) for i._ZN5AUXIO8TestLinkEv
    shell.o(i._ZN5SHELL4InitEv) refers to shell.o(i._ZN5SHELL5FlushEv) for SHELL::Flush()
    shell.o(i._ZN5SHELL4InitEv) refers to shell.o(i._ZN5SHELL8DictInitEv) for SHELL::DictInit()
    shell.o(i._ZN5SHELL5MatchEPcS0_) refers to rt_memclr_w.o(.text) for __aeabi_memclr4
    shell.o(i._ZN5SHELL5MatchEPcS0_) refers to shell.o(i._ZN5SHELL7GetWordEPcS0_Rc) for SHELL::GetWord(char*, char*, char&)
    shell.o(i._ZN5SHELL5MatchEPcS0_) refers to shell.o(i._ZN5SHELL7CompareEPcS0_) for SHELL::Compare(char*, char*)
    shell.o(i._ZN5SHELL6ExpandEPc) refers to shell.o(i._ZN5SHELL7CompareEPcS0_) for SHELL::Compare(char*, char*)
    shell.o(i._ZN5SHELL7Chr2NumEPc) refers to shell.o(.data) for Weight
    shell.o(i._ZN5SHELL7CompareEPcS0_) refers to shell.o(i._ZN5SHELL5UpperEc) for SHELL::Upper(char)
    shell.o(i._ZN5SHELL7DecoderEv) refers to shell.o(i._ZN5SHELL5MatchEPcS0_) for SHELL::Match(char*, char*)
    shell.o(i._ZN5SHELL7DecoderEv) refers to shell.o(i._ZN5SHELL9GetNumberEPcRj) for SHELL::GetNumber(char*, unsigned&)
    shell.o(i._ZN5SHELL7DecoderEv) refers to instruction.o(i._ZN11INSTRUCTION10SetTemExtAEj) for INSTRUCTION::SetTemExtA(unsigned)
    shell.o(i._ZN5SHELL7DecoderEv) refers to instruction.o(i._ZN11INSTRUCTION10SetTemExtBEj) for INSTRUCTION::SetTemExtB(unsigned)
    shell.o(i._ZN5SHELL7DecoderEv) refers to instruction.o(i._ZN11INSTRUCTION8SetTemBPEj) for INSTRUCTION::SetTemBP(unsigned)
    shell.o(i._ZN5SHELL7DecoderEv) refers to instruction.o(i._ZN11INSTRUCTION10SetColExtAEj) for INSTRUCTION::SetColExtA(unsigned)
    shell.o(i._ZN5SHELL7DecoderEv) refers to instruction.o(i._ZN11INSTRUCTION10SetColExtBEj) for INSTRUCTION::SetColExtB(unsigned)
    shell.o(i._ZN5SHELL7DecoderEv) refers to instruction.o(i._ZN11INSTRUCTION8AutoHomeEv) for INSTRUCTION::AutoHome()
    shell.o(i._ZN5SHELL7DecoderEv) refers to instruction.o(i._ZN11INSTRUCTION9MoveAxisXEj) for INSTRUCTION::MoveAxisX(unsigned)
    shell.o(i._ZN5SHELL7DecoderEv) refers to instruction.o(i._ZN11INSTRUCTION9MoveAxisYEj) for INSTRUCTION::MoveAxisY(unsigned)
    shell.o(i._ZN5SHELL7DecoderEv) refers to instruction.o(i._ZN11INSTRUCTION9MoveAxisZEj) for INSTRUCTION::MoveAxisZ(unsigned)
    shell.o(i._ZN5SHELL7DecoderEv) refers to instruction.o(i._ZN11INSTRUCTION13EnableNozzleAEv) for INSTRUCTION::EnableNozzleA()
    shell.o(i._ZN5SHELL7DecoderEv) refers to instruction.o(i._ZN11INSTRUCTION14DisableNozzleAEv) for INSTRUCTION::DisableNozzleA()
    shell.o(i._ZN5SHELL7DecoderEv) refers to instruction.o(i._ZN11INSTRUCTION13EnableNozzleBEv) for INSTRUCTION::EnableNozzleB()
    shell.o(i._ZN5SHELL7DecoderEv) refers to instruction.o(i._ZN11INSTRUCTION14DisableNozzleBEv) for INSTRUCTION::DisableNozzleB()
    shell.o(i._ZN5SHELL7DecoderEv) refers to instruction.o(i._ZN11INSTRUCTION13EnableStepperEv) for INSTRUCTION::EnableStepper()
    shell.o(i._ZN5SHELL7DecoderEv) refers to instruction.o(i._ZN11INSTRUCTION9EnableIDPEv) for INSTRUCTION::EnableIDP()
    shell.o(i._ZN5SHELL7DecoderEv) refers to instruction.o(i._ZN11INSTRUCTION10DisableIDPEv) for INSTRUCTION::DisableIDP()
    shell.o(i._ZN5SHELL7DecoderEv) refers to instruction.o(i._ZN11INSTRUCTION15EnableMainLightEv) for INSTRUCTION::EnableMainLight()
    shell.o(i._ZN5SHELL7DecoderEv) refers to instruction.o(i._ZN11INSTRUCTION16DisableMainLightEv) for INSTRUCTION::DisableMainLight()
    shell.o(i._ZN5SHELL7DecoderEv) refers to instruction.o(i._ZN11INSTRUCTION20EnableAuxiliaryLightEv) for INSTRUCTION::EnableAuxiliaryLight()
    shell.o(i._ZN5SHELL7DecoderEv) refers to instruction.o(i._ZN11INSTRUCTION21DisableAuxiliaryLightEv) for INSTRUCTION::DisableAuxiliaryLight()
    shell.o(i._ZN5SHELL7DecoderEv) refers to instruction.o(i._ZN11INSTRUCTION11StorageInfoEv) for INSTRUCTION::StorageInfo()
    shell.o(i._ZN5SHELL7DecoderEv) refers to instruction.o(i._ZN11INSTRUCTION18StartManufacturingEv) for INSTRUCTION::StartManufacturing()
    shell.o(i._ZN5SHELL7DecoderEv) refers to instruction.o(i._ZN11INSTRUCTION17StopManufacturingEv) for INSTRUCTION::StopManufacturing()
    shell.o(i._ZN5SHELL7DecoderEv) refers to instruction.o(i._ZN11INSTRUCTION18PauseManufacturingEv) for INSTRUCTION::PauseManufacturing()
    shell.o(i._ZN5SHELL7DecoderEv) refers to instruction.o(i._ZN11INSTRUCTION19ResumeManufacturingEv) for INSTRUCTION::ResumeManufacturing()
    shell.o(i._ZN5SHELL7DecoderEv) refers to instruction.o(i._ZN11INSTRUCTION14ReloadFilamentEv) for INSTRUCTION::ReloadFilament()
    shell.o(i._ZN5SHELL7DecoderEv) refers to instruction.o(i._ZN11INSTRUCTION11WarningInfoEv) for INSTRUCTION::WarningInfo()
    shell.o(i._ZN5SHELL7DecoderEv) refers to instruction.o(i._ZN11INSTRUCTION9ErrorInfoEv) for INSTRUCTION::ErrorInfo()
    shell.o(i._ZN5SHELL7DecoderEv) refers to instruction.o(i._ZN11INSTRUCTION17ManufacturingInfoEv) for INSTRUCTION::ManufacturingInfo()
    shell.o(i._ZN5SHELL7DecoderEv) refers to instruction.o(i._ZN11INSTRUCTION19ManufacturingReportEv) for INSTRUCTION::ManufacturingReport()
    shell.o(i._ZN5SHELL7DecoderEv) refers to instruction.o(i._ZN11INSTRUCTION11RefreshDictEv) for INSTRUCTION::RefreshDict()
    shell.o(i._ZN5SHELL7DecoderEv) refers to instruction.o(i._ZN11INSTRUCTION8NotFoundEv) for INSTRUCTION::NotFound()
    shell.o(i._ZN5SHELL7DecoderEv) refers to shell.o(i._ZN5SHELL5FlushEv) for SHELL::Flush()
    shell.o(i._ZN5SHELL7DecoderEv) refers to instruction.o(.data) for Instruct
    shell.o(i._ZN5SHELL7GetWordEPcS0_Rc) refers to shell.o(i._ZN5SHELL8IsLetterEc) for SHELL::IsLetter(char)
    shell.o(i._ZN5SHELL7GetWordEPcS0_Rc) refers to shell.o(i._ZN5SHELL8IsNumberEc) for SHELL::IsNumber(char)
    shell.o(i._ZN5SHELL8DictInitEv) refers to cconi.o(i._ZN5CCONI16ExpandDictionaryEPc) for CCONI::ExpandDictionary(char*)
    shell.o(i._ZN5SHELL8DictInitEv) refers to cconi.o(.data) for Cconi
    shell.o(i._ZN5SHELL9GetNumberEPcRj) refers to shell.o(i._ZN5SHELL8IsNumberEc) for SHELL::IsNumber(char)
    shell.o(i._ZN5SHELL9GetNumberEPcRj) refers to rt_memclr_w.o(.text) for __aeabi_memclr4
    shell.o(i._ZN5SHELL9GetNumberEPcRj) refers to shell.o(i._ZN5SHELL7GetWordEPcS0_Rc) for SHELL::GetWord(char*, char*, char&)
    shell.o(i._ZN5SHELL9GetNumberEPcRj) refers to shell.o(i._ZN5SHELL7Chr2NumEPc) for SHELL::Chr2Num(char*)
    shell.o(.ARM.exidx) refers to shell.o(i._ZN5SHELL8DictInitEv) for i._ZN5SHELL8DictInitEv
    shell.o(.ARM.exidx) refers to shell.o(i._ZN5SHELL5FlushEv) for i._ZN5SHELL5FlushEv
    shell.o(.ARM.exidx) refers to shell.o(i._ZN5SHELL4InitEv) for i._ZN5SHELL4InitEv
    shell.o(.ARM.exidx) refers to shell.o(i._ZN5SHELL5UpperEc) for i._ZN5SHELL5UpperEc
    shell.o(.ARM.exidx) refers to shell.o(i._ZN5SHELL7CompareEPcS0_) for i._ZN5SHELL7CompareEPcS0_
    shell.o(.ARM.exidx) refers to shell.o(i._ZN5SHELL8IsNumberEc) for i._ZN5SHELL8IsNumberEc
    shell.o(.ARM.exidx) refers to shell.o(i._ZN5SHELL8IsLetterEc) for i._ZN5SHELL8IsLetterEc
    shell.o(.ARM.exidx) refers to shell.o(i._ZN5SHELL7GetWordEPcS0_Rc) for i._ZN5SHELL7GetWordEPcS0_Rc
    shell.o(.ARM.exidx) refers to shell.o(i._ZN5SHELL5MatchEPcS0_) for i._ZN5SHELL5MatchEPcS0_
    shell.o(.ARM.exidx) refers to shell.o(i._ZN5SHELL7Chr2NumEPc) for i._ZN5SHELL7Chr2NumEPc
    shell.o(.ARM.exidx) refers to shell.o(i._ZN5SHELL9GetNumberEPcRj) for i._ZN5SHELL9GetNumberEPcRj
    shell.o(.ARM.exidx) refers to shell.o(i._ZN5SHELL7DecoderEv) for i._ZN5SHELL7DecoderEv
    shell.o(.ARM.exidx) refers to shell.o(i._ZN5SHELL6ExpandEPc) for i._ZN5SHELL6ExpandEPc
    instruction.o(i._ZN11INSTRUCTION10DisableIDPEv) refers to sconi.o(i._ZN5SCONI10DisableIDPEv) for SCONI::DisableIDP()
    instruction.o(i._ZN11INSTRUCTION10DisableIDPEv) refers to cconi.o(i._ZN5CCONI14ConsoleDisplayEPcb) for CCONI::ConsoleDisplay(char*, bool)
    instruction.o(i._ZN11INSTRUCTION10DisableIDPEv) refers to status.o(.bss) for Status
    instruction.o(i._ZN11INSTRUCTION10DisableIDPEv) refers to sconi.o(.data) for Sconi
    instruction.o(i._ZN11INSTRUCTION10DisableIDPEv) refers to cconi.o(.data) for Cconi
    instruction.o(i._ZN11INSTRUCTION10SetColExtAEj) refers to cconi.o(i._ZN5CCONI14ConsoleDisplayEPcb) for CCONI::ConsoleDisplay(char*, bool)
    instruction.o(i._ZN11INSTRUCTION10SetColExtAEj) refers to tconi.o(i._ZN5TCONI23SetCoolerPowerExtruderAEh) for TCONI::SetCoolerPowerExtruderA(unsigned char)
    instruction.o(i._ZN11INSTRUCTION10SetColExtAEj) refers to instruction.o(i._ZN11INSTRUCTION7Num2ChrEPcj) for INSTRUCTION::Num2Chr(char*, unsigned)
    instruction.o(i._ZN11INSTRUCTION10SetColExtAEj) refers to status.o(.bss) for Status
    instruction.o(i._ZN11INSTRUCTION10SetColExtAEj) refers to interpreter.o(.bss) for Interpreter
    instruction.o(i._ZN11INSTRUCTION10SetColExtAEj) refers to cconi.o(.data) for Cconi
    instruction.o(i._ZN11INSTRUCTION10SetColExtAEj) refers to tconi.o(.data) for Tconi
    instruction.o(i._ZN11INSTRUCTION10SetColExtAEj) refers to instruction.o(.bss) for Data
    instruction.o(i._ZN11INSTRUCTION10SetColExtBEj) refers to cconi.o(i._ZN5CCONI14ConsoleDisplayEPcb) for CCONI::ConsoleDisplay(char*, bool)
    instruction.o(i._ZN11INSTRUCTION10SetColExtBEj) refers to tconi.o(i._ZN5TCONI23SetCoolerPowerExtruderBEh) for TCONI::SetCoolerPowerExtruderB(unsigned char)
    instruction.o(i._ZN11INSTRUCTION10SetColExtBEj) refers to instruction.o(i._ZN11INSTRUCTION7Num2ChrEPcj) for INSTRUCTION::Num2Chr(char*, unsigned)
    instruction.o(i._ZN11INSTRUCTION10SetColExtBEj) refers to status.o(.bss) for Status
    instruction.o(i._ZN11INSTRUCTION10SetColExtBEj) refers to interpreter.o(.bss) for Interpreter
    instruction.o(i._ZN11INSTRUCTION10SetColExtBEj) refers to cconi.o(.data) for Cconi
    instruction.o(i._ZN11INSTRUCTION10SetColExtBEj) refers to tconi.o(.data) for Tconi
    instruction.o(i._ZN11INSTRUCTION10SetColExtBEj) refers to instruction.o(.bss) for Data
    instruction.o(i._ZN11INSTRUCTION10SetTemExtAEj) refers to cconi.o(i._ZN5CCONI14ConsoleDisplayEPcb) for CCONI::ConsoleDisplay(char*, bool)
    instruction.o(i._ZN11INSTRUCTION10SetTemExtAEj) refers to tconi.o(i._ZN5TCONI23SetTemperatureEASettingEt) for TCONI::SetTemperatureEASetting(unsigned short)
    instruction.o(i._ZN11INSTRUCTION10SetTemExtAEj) refers to instruction.o(i._ZN11INSTRUCTION7Num2ChrEPcj) for INSTRUCTION::Num2Chr(char*, unsigned)
    instruction.o(i._ZN11INSTRUCTION10SetTemExtAEj) refers to status.o(.bss) for Status
    instruction.o(i._ZN11INSTRUCTION10SetTemExtAEj) refers to interpreter.o(.bss) for Interpreter
    instruction.o(i._ZN11INSTRUCTION10SetTemExtAEj) refers to cconi.o(.data) for Cconi
    instruction.o(i._ZN11INSTRUCTION10SetTemExtAEj) refers to tconi.o(.data) for Tconi
    instruction.o(i._ZN11INSTRUCTION10SetTemExtAEj) refers to instruction.o(.bss) for Data
    instruction.o(i._ZN11INSTRUCTION10SetTemExtBEj) refers to cconi.o(i._ZN5CCONI14ConsoleDisplayEPcb) for CCONI::ConsoleDisplay(char*, bool)
    instruction.o(i._ZN11INSTRUCTION10SetTemExtBEj) refers to tconi.o(i._ZN5TCONI23SetTemperatureEBSettingEt) for TCONI::SetTemperatureEBSetting(unsigned short)
    instruction.o(i._ZN11INSTRUCTION10SetTemExtBEj) refers to instruction.o(i._ZN11INSTRUCTION7Num2ChrEPcj) for INSTRUCTION::Num2Chr(char*, unsigned)
    instruction.o(i._ZN11INSTRUCTION10SetTemExtBEj) refers to status.o(.bss) for Status
    instruction.o(i._ZN11INSTRUCTION10SetTemExtBEj) refers to interpreter.o(.bss) for Interpreter
    instruction.o(i._ZN11INSTRUCTION10SetTemExtBEj) refers to cconi.o(.data) for Cconi
    instruction.o(i._ZN11INSTRUCTION10SetTemExtBEj) refers to tconi.o(.data) for Tconi
    instruction.o(i._ZN11INSTRUCTION10SetTemExtBEj) refers to instruction.o(.bss) for Data
    instruction.o(i._ZN11INSTRUCTION11RefreshDictEv) refers to shell.o(i._ZN5SHELL8DictInitEv) for SHELL::DictInit()
    instruction.o(i._ZN11INSTRUCTION11RefreshDictEv) refers to cconi.o(i._ZN5CCONI14ConsoleDisplayEPcb) for CCONI::ConsoleDisplay(char*, bool)
    instruction.o(i._ZN11INSTRUCTION11RefreshDictEv) refers to status.o(.bss) for Status
    instruction.o(i._ZN11INSTRUCTION11RefreshDictEv) refers to shell.o(.bss) for Shell
    instruction.o(i._ZN11INSTRUCTION11RefreshDictEv) refers to cconi.o(.data) for Cconi
    instruction.o(i._ZN11INSTRUCTION11StorageInfoEv) refers to cconi.o(i._ZN5CCONI14ConsoleDisplayEPcb) for CCONI::ConsoleDisplay(char*, bool)
    instruction.o(i._ZN11INSTRUCTION11StorageInfoEv) refers to instruction.o(i._ZN11INSTRUCTION8PrintNumEj) for INSTRUCTION::PrintNum(unsigned)
    instruction.o(i._ZN11INSTRUCTION11StorageInfoEv) refers to status.o(.bss) for Status
    instruction.o(i._ZN11INSTRUCTION11StorageInfoEv) refers to cconi.o(.data) for Cconi
    instruction.o(i._ZN11INSTRUCTION11WarningInfoEv) refers to cconi.o(i._ZN5CCONI14ConsoleDisplayEPcb) for CCONI::ConsoleDisplay(char*, bool)
    instruction.o(i._ZN11INSTRUCTION11WarningInfoEv) refers to instruction.o(i._ZN11INSTRUCTION8PrintNumEj) for INSTRUCTION::PrintNum(unsigned)
    instruction.o(i._ZN11INSTRUCTION11WarningInfoEv) refers to interpreter.o(.bss) for Interpreter
    instruction.o(i._ZN11INSTRUCTION11WarningInfoEv) refers to cconi.o(.data) for Cconi
    instruction.o(i._ZN11INSTRUCTION13EnableNozzleAEv) refers to cconi.o(i._ZN5CCONI14ConsoleDisplayEPcb) for CCONI::ConsoleDisplay(char*, bool)
    instruction.o(i._ZN11INSTRUCTION13EnableNozzleAEv) refers to sconi.o(i._ZN5SCONI14SetNozzleStateEhh) for SCONI::SetNozzleState(unsigned char, unsigned char)
    instruction.o(i._ZN11INSTRUCTION13EnableNozzleAEv) refers to sconi.o(i._ZN5SCONI13GetStatusBusyEv) for SCONI::GetStatusBusy()
    instruction.o(i._ZN11INSTRUCTION13EnableNozzleAEv) refers to automate.o(i._ZN8AUTOMATE8CheckingEh) for AUTOMATE::Checking(unsigned char)
    instruction.o(i._ZN11INSTRUCTION13EnableNozzleAEv) refers to cconi.o(i._ZN5CCONI13HangUpConsoleEv) for CCONI::HangUpConsole()
    instruction.o(i._ZN11INSTRUCTION13EnableNozzleAEv) refers to status.o(.bss) for Status
    instruction.o(i._ZN11INSTRUCTION13EnableNozzleAEv) refers to interpreter.o(.bss) for Interpreter
    instruction.o(i._ZN11INSTRUCTION13EnableNozzleAEv) refers to cconi.o(.data) for Cconi
    instruction.o(i._ZN11INSTRUCTION13EnableNozzleAEv) refers to sconi.o(.data) for Sconi
    instruction.o(i._ZN11INSTRUCTION13EnableNozzleAEv) refers to automate.o(.bss) for Automate
    instruction.o(i._ZN11INSTRUCTION13EnableNozzleBEv) refers to cconi.o(i._ZN5CCONI14ConsoleDisplayEPcb) for CCONI::ConsoleDisplay(char*, bool)
    instruction.o(i._ZN11INSTRUCTION13EnableNozzleBEv) refers to sconi.o(i._ZN5SCONI14SetNozzleStateEhh) for SCONI::SetNozzleState(unsigned char, unsigned char)
    instruction.o(i._ZN11INSTRUCTION13EnableNozzleBEv) refers to sconi.o(i._ZN5SCONI13GetStatusBusyEv) for SCONI::GetStatusBusy()
    instruction.o(i._ZN11INSTRUCTION13EnableNozzleBEv) refers to automate.o(i._ZN8AUTOMATE8CheckingEh) for AUTOMATE::Checking(unsigned char)
    instruction.o(i._ZN11INSTRUCTION13EnableNozzleBEv) refers to cconi.o(i._ZN5CCONI13HangUpConsoleEv) for CCONI::HangUpConsole()
    instruction.o(i._ZN11INSTRUCTION13EnableNozzleBEv) refers to status.o(.bss) for Status
    instruction.o(i._ZN11INSTRUCTION13EnableNozzleBEv) refers to interpreter.o(.bss) for Interpreter
    instruction.o(i._ZN11INSTRUCTION13EnableNozzleBEv) refers to cconi.o(.data) for Cconi
    instruction.o(i._ZN11INSTRUCTION13EnableNozzleBEv) refers to sconi.o(.data) for Sconi
    instruction.o(i._ZN11INSTRUCTION13EnableNozzleBEv) refers to automate.o(.bss) for Automate
    instruction.o(i._ZN11INSTRUCTION13EnableStepperEv) refers to cconi.o(i._ZN5CCONI14ConsoleDisplayEPcb) for CCONI::ConsoleDisplay(char*, bool)
    instruction.o(i._ZN11INSTRUCTION13EnableStepperEv) refers to sconi.o(i._ZN5SCONI13EnableStepperEv) for SCONI::EnableStepper()
    instruction.o(i._ZN11INSTRUCTION13EnableStepperEv) refers to status.o(.bss) for Status
    instruction.o(i._ZN11INSTRUCTION13EnableStepperEv) refers to interpreter.o(.bss) for Interpreter
    instruction.o(i._ZN11INSTRUCTION13EnableStepperEv) refers to cconi.o(.data) for Cconi
    instruction.o(i._ZN11INSTRUCTION13EnableStepperEv) refers to sconi.o(.data) for Sconi
    instruction.o(i._ZN11INSTRUCTION14DisableNozzleAEv) refers to cconi.o(i._ZN5CCONI14ConsoleDisplayEPcb) for CCONI::ConsoleDisplay(char*, bool)
    instruction.o(i._ZN11INSTRUCTION14DisableNozzleAEv) refers to sconi.o(i._ZN5SCONI14SetNozzleStateEhh) for SCONI::SetNozzleState(unsigned char, unsigned char)
    instruction.o(i._ZN11INSTRUCTION14DisableNozzleAEv) refers to sconi.o(i._ZN5SCONI13GetStatusBusyEv) for SCONI::GetStatusBusy()
    instruction.o(i._ZN11INSTRUCTION14DisableNozzleAEv) refers to automate.o(i._ZN8AUTOMATE8CheckingEh) for AUTOMATE::Checking(unsigned char)
    instruction.o(i._ZN11INSTRUCTION14DisableNozzleAEv) refers to cconi.o(i._ZN5CCONI13HangUpConsoleEv) for CCONI::HangUpConsole()
    instruction.o(i._ZN11INSTRUCTION14DisableNozzleAEv) refers to status.o(.bss) for Status
    instruction.o(i._ZN11INSTRUCTION14DisableNozzleAEv) refers to interpreter.o(.bss) for Interpreter
    instruction.o(i._ZN11INSTRUCTION14DisableNozzleAEv) refers to cconi.o(.data) for Cconi
    instruction.o(i._ZN11INSTRUCTION14DisableNozzleAEv) refers to sconi.o(.data) for Sconi
    instruction.o(i._ZN11INSTRUCTION14DisableNozzleAEv) refers to automate.o(.bss) for Automate
    instruction.o(i._ZN11INSTRUCTION14DisableNozzleBEv) refers to cconi.o(i._ZN5CCONI14ConsoleDisplayEPcb) for CCONI::ConsoleDisplay(char*, bool)
    instruction.o(i._ZN11INSTRUCTION14DisableNozzleBEv) refers to sconi.o(i._ZN5SCONI14SetNozzleStateEhh) for SCONI::SetNozzleState(unsigned char, unsigned char)
    instruction.o(i._ZN11INSTRUCTION14DisableNozzleBEv) refers to sconi.o(i._ZN5SCONI13GetStatusBusyEv) for SCONI::GetStatusBusy()
    instruction.o(i._ZN11INSTRUCTION14DisableNozzleBEv) refers to automate.o(i._ZN8AUTOMATE8CheckingEh) for AUTOMATE::Checking(unsigned char)
    instruction.o(i._ZN11INSTRUCTION14DisableNozzleBEv) refers to cconi.o(i._ZN5CCONI13HangUpConsoleEv) for CCONI::HangUpConsole()
    instruction.o(i._ZN11INSTRUCTION14DisableNozzleBEv) refers to status.o(.bss) for Status
    instruction.o(i._ZN11INSTRUCTION14DisableNozzleBEv) refers to interpreter.o(.bss) for Interpreter
    instruction.o(i._ZN11INSTRUCTION14DisableNozzleBEv) refers to cconi.o(.data) for Cconi
    instruction.o(i._ZN11INSTRUCTION14DisableNozzleBEv) refers to sconi.o(.data) for Sconi
    instruction.o(i._ZN11INSTRUCTION14DisableNozzleBEv) refers to automate.o(.bss) for Automate
    instruction.o(i._ZN11INSTRUCTION14ReloadFilamentEv) refers to interpreter.o(i._ZN11INTERPRETER6ReLoadEv) for INTERPRETER::ReLoad()
    instruction.o(i._ZN11INSTRUCTION14ReloadFilamentEv) refers to cconi.o(i._ZN5CCONI14ConsoleDisplayEPcb) for CCONI::ConsoleDisplay(char*, bool)
    instruction.o(i._ZN11INSTRUCTION14ReloadFilamentEv) refers to interpreter.o(.bss) for Interpreter
    instruction.o(i._ZN11INSTRUCTION14ReloadFilamentEv) refers to cconi.o(.data) for Cconi
    instruction.o(i._ZN11INSTRUCTION15EnableMainLightEv) refers to auxio.o(i._ZN5AUXIO8TestLinkEv) for AUXIO::TestLink()
    instruction.o(i._ZN11INSTRUCTION15EnableMainLightEv) refers to auxio.o(i._ZN5AUXIO18SetStatusMainLightEb) for AUXIO::SetStatusMainLight(bool)
    instruction.o(i._ZN11INSTRUCTION15EnableMainLightEv) refers to cconi.o(i._ZN5CCONI14ConsoleDisplayEPcb) for CCONI::ConsoleDisplay(char*, bool)
    instruction.o(i._ZN11INSTRUCTION15EnableMainLightEv) refers to auxio.o(.data) for AuxIO
    instruction.o(i._ZN11INSTRUCTION15EnableMainLightEv) refers to cconi.o(.data) for Cconi
    instruction.o(i._ZN11INSTRUCTION16DisableMainLightEv) refers to auxio.o(i._ZN5AUXIO8TestLinkEv) for AUXIO::TestLink()
    instruction.o(i._ZN11INSTRUCTION16DisableMainLightEv) refers to auxio.o(i._ZN5AUXIO18SetStatusMainLightEb) for AUXIO::SetStatusMainLight(bool)
    instruction.o(i._ZN11INSTRUCTION16DisableMainLightEv) refers to cconi.o(i._ZN5CCONI14ConsoleDisplayEPcb) for CCONI::ConsoleDisplay(char*, bool)
    instruction.o(i._ZN11INSTRUCTION16DisableMainLightEv) refers to auxio.o(.data) for AuxIO
    instruction.o(i._ZN11INSTRUCTION16DisableMainLightEv) refers to cconi.o(.data) for Cconi
    instruction.o(i._ZN11INSTRUCTION17ManufacturingInfoEv) refers to cconi.o(i._ZN5CCONI14ConsoleDisplayEPcb) for CCONI::ConsoleDisplay(char*, bool)
    instruction.o(i._ZN11INSTRUCTION17ManufacturingInfoEv) refers to instruction.o(i._ZN11INSTRUCTION8PrintNumEj) for INSTRUCTION::PrintNum(unsigned)
    instruction.o(i._ZN11INSTRUCTION17ManufacturingInfoEv) refers to interpreter.o(.bss) for Interpreter
    instruction.o(i._ZN11INSTRUCTION17ManufacturingInfoEv) refers to cconi.o(.data) for Cconi
    instruction.o(i._ZN11INSTRUCTION17StopManufacturingEv) refers to interpreter.o(i._ZN11INTERPRETER4StopEv) for INTERPRETER::Stop()
    instruction.o(i._ZN11INSTRUCTION17StopManufacturingEv) refers to cconi.o(i._ZN5CCONI14ConsoleDisplayEPcb) for CCONI::ConsoleDisplay(char*, bool)
    instruction.o(i._ZN11INSTRUCTION17StopManufacturingEv) refers to interpreter.o(.bss) for Interpreter
    instruction.o(i._ZN11INSTRUCTION17StopManufacturingEv) refers to cconi.o(.data) for Cconi
    instruction.o(i._ZN11INSTRUCTION18PauseManufacturingEv) refers to interpreter.o(i._ZN11INTERPRETER5PauseEv) for INTERPRETER::Pause()
    instruction.o(i._ZN11INSTRUCTION18PauseManufacturingEv) refers to cconi.o(i._ZN5CCONI14ConsoleDisplayEPcb) for CCONI::ConsoleDisplay(char*, bool)
    instruction.o(i._ZN11INSTRUCTION18PauseManufacturingEv) refers to interpreter.o(.bss) for Interpreter
    instruction.o(i._ZN11INSTRUCTION18PauseManufacturingEv) refers to cconi.o(.data) for Cconi
    instruction.o(i._ZN11INSTRUCTION18StartManufacturingEv) refers to interpreter.o(i._ZN11INTERPRETER5StartEv) for INTERPRETER::Start()
    instruction.o(i._ZN11INSTRUCTION18StartManufacturingEv) refers to cconi.o(i._ZN5CCONI14ConsoleDisplayEPcb) for CCONI::ConsoleDisplay(char*, bool)
    instruction.o(i._ZN11INSTRUCTION18StartManufacturingEv) refers to interpreter.o(.bss) for Interpreter
    instruction.o(i._ZN11INSTRUCTION18StartManufacturingEv) refers to cconi.o(.data) for Cconi
    instruction.o(i._ZN11INSTRUCTION19ManufacturingReportEv) refers to cconi.o(i._ZN5CCONI14ConsoleDisplayEPcb) for CCONI::ConsoleDisplay(char*, bool)
    instruction.o(i._ZN11INSTRUCTION19ManufacturingReportEv) refers to instruction.o(i._ZN11INSTRUCTION8PrintNumEj) for INSTRUCTION::PrintNum(unsigned)
    instruction.o(i._ZN11INSTRUCTION19ManufacturingReportEv) refers to interpreter.o(.bss) for Interpreter
    instruction.o(i._ZN11INSTRUCTION19ManufacturingReportEv) refers to cconi.o(.data) for Cconi
    instruction.o(i._ZN11INSTRUCTION19ResumeManufacturingEv) refers to interpreter.o(i._ZN11INTERPRETER6ResumeEv) for INTERPRETER::Resume()
    instruction.o(i._ZN11INSTRUCTION19ResumeManufacturingEv) refers to cconi.o(i._ZN5CCONI14ConsoleDisplayEPcb) for CCONI::ConsoleDisplay(char*, bool)
    instruction.o(i._ZN11INSTRUCTION19ResumeManufacturingEv) refers to interpreter.o(.bss) for Interpreter
    instruction.o(i._ZN11INSTRUCTION19ResumeManufacturingEv) refers to cconi.o(.data) for Cconi
    instruction.o(i._ZN11INSTRUCTION20EnableAuxiliaryLightEv) refers to auxio.o(i._ZN5AUXIO8TestLinkEv) for AUXIO::TestLink()
    instruction.o(i._ZN11INSTRUCTION20EnableAuxiliaryLightEv) refers to auxio.o(i._ZN5AUXIO23SetStatusAuxiliaryLightEb) for AUXIO::SetStatusAuxiliaryLight(bool)
    instruction.o(i._ZN11INSTRUCTION20EnableAuxiliaryLightEv) refers to cconi.o(i._ZN5CCONI14ConsoleDisplayEPcb) for CCONI::ConsoleDisplay(char*, bool)
    instruction.o(i._ZN11INSTRUCTION20EnableAuxiliaryLightEv) refers to auxio.o(.data) for AuxIO
    instruction.o(i._ZN11INSTRUCTION20EnableAuxiliaryLightEv) refers to cconi.o(.data) for Cconi
    instruction.o(i._ZN11INSTRUCTION21DisableAuxiliaryLightEv) refers to auxio.o(i._ZN5AUXIO8TestLinkEv) for AUXIO::TestLink()
    instruction.o(i._ZN11INSTRUCTION21DisableAuxiliaryLightEv) refers to auxio.o(i._ZN5AUXIO23SetStatusAuxiliaryLightEb) for AUXIO::SetStatusAuxiliaryLight(bool)
    instruction.o(i._ZN11INSTRUCTION21DisableAuxiliaryLightEv) refers to cconi.o(i._ZN5CCONI14ConsoleDisplayEPcb) for CCONI::ConsoleDisplay(char*, bool)
    instruction.o(i._ZN11INSTRUCTION21DisableAuxiliaryLightEv) refers to auxio.o(.data) for AuxIO
    instruction.o(i._ZN11INSTRUCTION21DisableAuxiliaryLightEv) refers to cconi.o(.data) for Cconi
    instruction.o(i._ZN11INSTRUCTION7Num2ChrEPcj) refers to lludivv7m.o(.text) for __aeabi_uldivmod
    instruction.o(i._ZN11INSTRUCTION7Num2ChrEPcj) refers to instruction.o(.data) for Weight
    instruction.o(i._ZN11INSTRUCTION8AutoHomeEv) refers to cconi.o(i._ZN5CCONI14ConsoleDisplayEPcb) for CCONI::ConsoleDisplay(char*, bool)
    instruction.o(i._ZN11INSTRUCTION8AutoHomeEv) refers to sconi.o(i._ZN5SCONI10AutoHomingEv) for SCONI::AutoHoming()
    instruction.o(i._ZN11INSTRUCTION8AutoHomeEv) refers to sconi.o(i._ZN5SCONI13GetStatusBusyEv) for SCONI::GetStatusBusy()
    instruction.o(i._ZN11INSTRUCTION8AutoHomeEv) refers to automate.o(i._ZN8AUTOMATE8CheckingEh) for AUTOMATE::Checking(unsigned char)
    instruction.o(i._ZN11INSTRUCTION8AutoHomeEv) refers to cconi.o(i._ZN5CCONI13HangUpConsoleEv) for CCONI::HangUpConsole()
    instruction.o(i._ZN11INSTRUCTION8AutoHomeEv) refers to sconi.o(i._ZN5SCONI13GetTestPointAEv) for SCONI::GetTestPointA()
    instruction.o(i._ZN11INSTRUCTION8AutoHomeEv) refers to sconi.o(i._ZN5SCONI13GetTestPointBEv) for SCONI::GetTestPointB()
    instruction.o(i._ZN11INSTRUCTION8AutoHomeEv) refers to sconi.o(i._ZN5SCONI13GetTestPointCEv) for SCONI::GetTestPointC()
    instruction.o(i._ZN11INSTRUCTION8AutoHomeEv) refers to sconi.o(i._ZN5SCONI13GetTestPointDEv) for SCONI::GetTestPointD()
    instruction.o(i._ZN11INSTRUCTION8AutoHomeEv) refers to sconi.o(i._ZN5SCONI13GetTestPointMEv) for SCONI::GetTestPointM()
    instruction.o(i._ZN11INSTRUCTION8AutoHomeEv) refers to sconi.o(i._ZN5SCONI17GetStatusLevelingEv) for SCONI::GetStatusLeveling()
    instruction.o(i._ZN11INSTRUCTION8AutoHomeEv) refers to dmul.o(x$fpl$dmul) for __aeabi_dmul
    instruction.o(i._ZN11INSTRUCTION8AutoHomeEv) refers to dfixu.o(x$fpl$dfixu) for __aeabi_d2uiz
    instruction.o(i._ZN11INSTRUCTION8AutoHomeEv) refers to instruction.o(i._ZN11INSTRUCTION8PrintNumEj) for INSTRUCTION::PrintNum(unsigned)
    instruction.o(i._ZN11INSTRUCTION8AutoHomeEv) refers to status.o(.bss) for Status
    instruction.o(i._ZN11INSTRUCTION8AutoHomeEv) refers to interpreter.o(.bss) for Interpreter
    instruction.o(i._ZN11INSTRUCTION8AutoHomeEv) refers to cconi.o(.data) for Cconi
    instruction.o(i._ZN11INSTRUCTION8AutoHomeEv) refers to sconi.o(.data) for Sconi
    instruction.o(i._ZN11INSTRUCTION8AutoHomeEv) refers to automate.o(.bss) for Automate
    instruction.o(i._ZN11INSTRUCTION8NotFoundEv) refers to cconi.o(i._ZN5CCONI14ConsoleDisplayEPcb) for CCONI::ConsoleDisplay(char*, bool)
    instruction.o(i._ZN11INSTRUCTION8NotFoundEv) refers to cconi.o(.data) for Cconi
    instruction.o(i._ZN11INSTRUCTION8PrintNumEj) refers to instruction.o(i._ZN11INSTRUCTION7Num2ChrEPcj) for INSTRUCTION::Num2Chr(char*, unsigned)
    instruction.o(i._ZN11INSTRUCTION8PrintNumEj) refers to cconi.o(i._ZN5CCONI14ConsoleDisplayEPcb) for CCONI::ConsoleDisplay(char*, bool)
    instruction.o(i._ZN11INSTRUCTION8PrintNumEj) refers to instruction.o(.bss) for Temp
    instruction.o(i._ZN11INSTRUCTION8PrintNumEj) refers to cconi.o(.data) for Cconi
    instruction.o(i._ZN11INSTRUCTION8SetTemBPEj) refers to cconi.o(i._ZN5CCONI14ConsoleDisplayEPcb) for CCONI::ConsoleDisplay(char*, bool)
    instruction.o(i._ZN11INSTRUCTION8SetTemBPEj) refers to tconi.o(i._ZN5TCONI23SetTemperatureBPSettingEt) for TCONI::SetTemperatureBPSetting(unsigned short)
    instruction.o(i._ZN11INSTRUCTION8SetTemBPEj) refers to instruction.o(i._ZN11INSTRUCTION7Num2ChrEPcj) for INSTRUCTION::Num2Chr(char*, unsigned)
    instruction.o(i._ZN11INSTRUCTION8SetTemBPEj) refers to status.o(.bss) for Status
    instruction.o(i._ZN11INSTRUCTION8SetTemBPEj) refers to interpreter.o(.bss) for Interpreter
    instruction.o(i._ZN11INSTRUCTION8SetTemBPEj) refers to cconi.o(.data) for Cconi
    instruction.o(i._ZN11INSTRUCTION8SetTemBPEj) refers to tconi.o(.data) for Tconi
    instruction.o(i._ZN11INSTRUCTION8SetTemBPEj) refers to instruction.o(.bss) for Data
    instruction.o(i._ZN11INSTRUCTION9EnableIDPEv) refers to sconi.o(i._ZN5SCONI9EnableIDPEv) for SCONI::EnableIDP()
    instruction.o(i._ZN11INSTRUCTION9EnableIDPEv) refers to cconi.o(i._ZN5CCONI14ConsoleDisplayEPcb) for CCONI::ConsoleDisplay(char*, bool)
    instruction.o(i._ZN11INSTRUCTION9EnableIDPEv) refers to status.o(.bss) for Status
    instruction.o(i._ZN11INSTRUCTION9EnableIDPEv) refers to sconi.o(.data) for Sconi
    instruction.o(i._ZN11INSTRUCTION9EnableIDPEv) refers to cconi.o(.data) for Cconi
    instruction.o(i._ZN11INSTRUCTION9ErrorInfoEv) refers to cconi.o(i._ZN5CCONI14ConsoleDisplayEPcb) for CCONI::ConsoleDisplay(char*, bool)
    instruction.o(i._ZN11INSTRUCTION9ErrorInfoEv) refers to rt_memclr_w.o(.text) for __aeabi_memclr4
    instruction.o(i._ZN11INSTRUCTION9ErrorInfoEv) refers to instruction.o(i._ZN11INSTRUCTION8PrintNumEj) for INSTRUCTION::PrintNum(unsigned)
    instruction.o(i._ZN11INSTRUCTION9ErrorInfoEv) refers to interpreter.o(.bss) for Interpreter
    instruction.o(i._ZN11INSTRUCTION9ErrorInfoEv) refers to cconi.o(.data) for Cconi
    instruction.o(i._ZN11INSTRUCTION9MoveAxisXEj) refers to cconi.o(i._ZN5CCONI14ConsoleDisplayEPcb) for CCONI::ConsoleDisplay(char*, bool)
    instruction.o(i._ZN11INSTRUCTION9MoveAxisXEj) refers to dflt_clz.o(x$fpl$dfltu) for __aeabi_ui2d
    instruction.o(i._ZN11INSTRUCTION9MoveAxisXEj) refers to sconi.o(i._ZN5SCONI8MoveAxisEdh) for SCONI::MoveAxis(double, unsigned char)
    instruction.o(i._ZN11INSTRUCTION9MoveAxisXEj) refers to sconi.o(i._ZN5SCONI13GetStatusBusyEv) for SCONI::GetStatusBusy()
    instruction.o(i._ZN11INSTRUCTION9MoveAxisXEj) refers to automate.o(i._ZN8AUTOMATE8CheckingEh) for AUTOMATE::Checking(unsigned char)
    instruction.o(i._ZN11INSTRUCTION9MoveAxisXEj) refers to cconi.o(i._ZN5CCONI13HangUpConsoleEv) for CCONI::HangUpConsole()
    instruction.o(i._ZN11INSTRUCTION9MoveAxisXEj) refers to status.o(.bss) for Status
    instruction.o(i._ZN11INSTRUCTION9MoveAxisXEj) refers to interpreter.o(.bss) for Interpreter
    instruction.o(i._ZN11INSTRUCTION9MoveAxisXEj) refers to cconi.o(.data) for Cconi
    instruction.o(i._ZN11INSTRUCTION9MoveAxisXEj) refers to sconi.o(.data) for Sconi
    instruction.o(i._ZN11INSTRUCTION9MoveAxisXEj) refers to automate.o(.bss) for Automate
    instruction.o(i._ZN11INSTRUCTION9MoveAxisYEj) refers to cconi.o(i._ZN5CCONI14ConsoleDisplayEPcb) for CCONI::ConsoleDisplay(char*, bool)
    instruction.o(i._ZN11INSTRUCTION9MoveAxisYEj) refers to dflt_clz.o(x$fpl$dfltu) for __aeabi_ui2d
    instruction.o(i._ZN11INSTRUCTION9MoveAxisYEj) refers to sconi.o(i._ZN5SCONI8MoveAxisEdh) for SCONI::MoveAxis(double, unsigned char)
    instruction.o(i._ZN11INSTRUCTION9MoveAxisYEj) refers to sconi.o(i._ZN5SCONI13GetStatusBusyEv) for SCONI::GetStatusBusy()
    instruction.o(i._ZN11INSTRUCTION9MoveAxisYEj) refers to automate.o(i._ZN8AUTOMATE8CheckingEh) for AUTOMATE::Checking(unsigned char)
    instruction.o(i._ZN11INSTRUCTION9MoveAxisYEj) refers to cconi.o(i._ZN5CCONI13HangUpConsoleEv) for CCONI::HangUpConsole()
    instruction.o(i._ZN11INSTRUCTION9MoveAxisYEj) refers to status.o(.bss) for Status
    instruction.o(i._ZN11INSTRUCTION9MoveAxisYEj) refers to interpreter.o(.bss) for Interpreter
    instruction.o(i._ZN11INSTRUCTION9MoveAxisYEj) refers to cconi.o(.data) for Cconi
    instruction.o(i._ZN11INSTRUCTION9MoveAxisYEj) refers to sconi.o(.data) for Sconi
    instruction.o(i._ZN11INSTRUCTION9MoveAxisYEj) refers to automate.o(.bss) for Automate
    instruction.o(i._ZN11INSTRUCTION9MoveAxisZEj) refers to cconi.o(i._ZN5CCONI14ConsoleDisplayEPcb) for CCONI::ConsoleDisplay(char*, bool)
    instruction.o(i._ZN11INSTRUCTION9MoveAxisZEj) refers to dflt_clz.o(x$fpl$dfltu) for __aeabi_ui2d
    instruction.o(i._ZN11INSTRUCTION9MoveAxisZEj) refers to sconi.o(i._ZN5SCONI8MoveAxisEdh) for SCONI::MoveAxis(double, unsigned char)
    instruction.o(i._ZN11INSTRUCTION9MoveAxisZEj) refers to sconi.o(i._ZN5SCONI13GetStatusBusyEv) for SCONI::GetStatusBusy()
    instruction.o(i._ZN11INSTRUCTION9MoveAxisZEj) refers to automate.o(i._ZN8AUTOMATE8CheckingEh) for AUTOMATE::Checking(unsigned char)
    instruction.o(i._ZN11INSTRUCTION9MoveAxisZEj) refers to cconi.o(i._ZN5CCONI13HangUpConsoleEv) for CCONI::HangUpConsole()
    instruction.o(i._ZN11INSTRUCTION9MoveAxisZEj) refers to status.o(.bss) for Status
    instruction.o(i._ZN11INSTRUCTION9MoveAxisZEj) refers to interpreter.o(.bss) for Interpreter
    instruction.o(i._ZN11INSTRUCTION9MoveAxisZEj) refers to cconi.o(.data) for Cconi
    instruction.o(i._ZN11INSTRUCTION9MoveAxisZEj) refers to sconi.o(.data) for Sconi
    instruction.o(i._ZN11INSTRUCTION9MoveAxisZEj) refers to automate.o(.bss) for Automate
    instruction.o(.ARM.exidx) refers to instruction.o(i._ZN11INSTRUCTION7Num2ChrEPcj) for i._ZN11INSTRUCTION7Num2ChrEPcj
    instruction.o(.ARM.exidx) refers to instruction.o(i._ZN11INSTRUCTION10SetTemExtAEj) for i._ZN11INSTRUCTION10SetTemExtAEj
    instruction.o(.ARM.exidx) refers to instruction.o(i._ZN11INSTRUCTION10SetTemExtBEj) for i._ZN11INSTRUCTION10SetTemExtBEj
    instruction.o(.ARM.exidx) refers to instruction.o(i._ZN11INSTRUCTION8SetTemBPEj) for i._ZN11INSTRUCTION8SetTemBPEj
    instruction.o(.ARM.exidx) refers to instruction.o(i._ZN11INSTRUCTION10SetColExtAEj) for i._ZN11INSTRUCTION10SetColExtAEj
    instruction.o(.ARM.exidx) refers to instruction.o(i._ZN11INSTRUCTION10SetColExtBEj) for i._ZN11INSTRUCTION10SetColExtBEj
    instruction.o(.ARM.exidx) refers to instruction.o(i._ZN11INSTRUCTION8PrintNumEj) for i._ZN11INSTRUCTION8PrintNumEj
    instruction.o(.ARM.exidx) refers to instruction.o(i._ZN11INSTRUCTION8AutoHomeEv) for i._ZN11INSTRUCTION8AutoHomeEv
    instruction.o(.ARM.exidx) refers to instruction.o(i._ZN11INSTRUCTION9MoveAxisXEj) for i._ZN11INSTRUCTION9MoveAxisXEj
    instruction.o(.ARM.exidx) refers to instruction.o(i._ZN11INSTRUCTION9MoveAxisYEj) for i._ZN11INSTRUCTION9MoveAxisYEj
    instruction.o(.ARM.exidx) refers to instruction.o(i._ZN11INSTRUCTION9MoveAxisZEj) for i._ZN11INSTRUCTION9MoveAxisZEj
    instruction.o(.ARM.exidx) refers to instruction.o(i._ZN11INSTRUCTION13EnableNozzleAEv) for i._ZN11INSTRUCTION13EnableNozzleAEv
    instruction.o(.ARM.exidx) refers to instruction.o(i._ZN11INSTRUCTION14DisableNozzleAEv) for i._ZN11INSTRUCTION14DisableNozzleAEv
    instruction.o(.ARM.exidx) refers to instruction.o(i._ZN11INSTRUCTION13EnableNozzleBEv) for i._ZN11INSTRUCTION13EnableNozzleBEv
    instruction.o(.ARM.exidx) refers to instruction.o(i._ZN11INSTRUCTION14DisableNozzleBEv) for i._ZN11INSTRUCTION14DisableNozzleBEv
    instruction.o(.ARM.exidx) refers to instruction.o(i._ZN11INSTRUCTION13EnableStepperEv) for i._ZN11INSTRUCTION13EnableStepperEv
    instruction.o(.ARM.exidx) refers to instruction.o(i._ZN11INSTRUCTION9EnableIDPEv) for i._ZN11INSTRUCTION9EnableIDPEv
    instruction.o(.ARM.exidx) refers to instruction.o(i._ZN11INSTRUCTION10DisableIDPEv) for i._ZN11INSTRUCTION10DisableIDPEv
    instruction.o(.ARM.exidx) refers to instruction.o(i._ZN11INSTRUCTION15EnableMainLightEv) for i._ZN11INSTRUCTION15EnableMainLightEv
    instruction.o(.ARM.exidx) refers to instruction.o(i._ZN11INSTRUCTION16DisableMainLightEv) for i._ZN11INSTRUCTION16DisableMainLightEv
    instruction.o(.ARM.exidx) refers to instruction.o(i._ZN11INSTRUCTION20EnableAuxiliaryLightEv) for i._ZN11INSTRUCTION20EnableAuxiliaryLightEv
    instruction.o(.ARM.exidx) refers to instruction.o(i._ZN11INSTRUCTION21DisableAuxiliaryLightEv) for i._ZN11INSTRUCTION21DisableAuxiliaryLightEv
    instruction.o(.ARM.exidx) refers to instruction.o(i._ZN11INSTRUCTION11StorageInfoEv) for i._ZN11INSTRUCTION11StorageInfoEv
    instruction.o(.ARM.exidx) refers to instruction.o(i._ZN11INSTRUCTION18StartManufacturingEv) for i._ZN11INSTRUCTION18StartManufacturingEv
    instruction.o(.ARM.exidx) refers to instruction.o(i._ZN11INSTRUCTION17StopManufacturingEv) for i._ZN11INSTRUCTION17StopManufacturingEv
    instruction.o(.ARM.exidx) refers to instruction.o(i._ZN11INSTRUCTION18PauseManufacturingEv) for i._ZN11INSTRUCTION18PauseManufacturingEv
    instruction.o(.ARM.exidx) refers to instruction.o(i._ZN11INSTRUCTION19ResumeManufacturingEv) for i._ZN11INSTRUCTION19ResumeManufacturingEv
    instruction.o(.ARM.exidx) refers to instruction.o(i._ZN11INSTRUCTION14ReloadFilamentEv) for i._ZN11INSTRUCTION14ReloadFilamentEv
    instruction.o(.ARM.exidx) refers to instruction.o(i._ZN11INSTRUCTION11WarningInfoEv) for i._ZN11INSTRUCTION11WarningInfoEv
    instruction.o(.ARM.exidx) refers to instruction.o(i._ZN11INSTRUCTION9ErrorInfoEv) for i._ZN11INSTRUCTION9ErrorInfoEv
    instruction.o(.ARM.exidx) refers to instruction.o(i._ZN11INSTRUCTION17ManufacturingInfoEv) for i._ZN11INSTRUCTION17ManufacturingInfoEv
    instruction.o(.ARM.exidx) refers to instruction.o(i._ZN11INSTRUCTION19ManufacturingReportEv) for i._ZN11INSTRUCTION19ManufacturingReportEv
    instruction.o(.ARM.exidx) refers to instruction.o(i._ZN11INSTRUCTION11RefreshDictEv) for i._ZN11INSTRUCTION11RefreshDictEv
    instruction.o(.ARM.exidx) refers to instruction.o(i._ZN11INSTRUCTION8NotFoundEv) for i._ZN11INSTRUCTION8NotFoundEv
    interpreter.o(i._ZN11INTERPRETER11StatusCheckEv) refers to auxio.o(i._ZN5AUXIO18GetStatusMaterialAEv) for AUXIO::GetStatusMaterialA()
    interpreter.o(i._ZN11INTERPRETER11StatusCheckEv) refers to auxio.o(i._ZN5AUXIO18GetStatusMaterialBEv) for AUXIO::GetStatusMaterialB()
    interpreter.o(i._ZN11INTERPRETER11StatusCheckEv) refers to status.o(.bss) for Status
    interpreter.o(i._ZN11INTERPRETER11StatusCheckEv) refers to auxio.o(.data) for AuxIO
    interpreter.o(i._ZN11INTERPRETER12CharToDoubleEPh) refers to dflt_clz.o(x$fpl$dflt) for __aeabi_i2d
    interpreter.o(i._ZN11INTERPRETER12CharToDoubleEPh) refers to dmul.o(x$fpl$dmul) for __aeabi_dmul
    interpreter.o(i._ZN11INTERPRETER12CharToDoubleEPh) refers to daddsub_clz.o(x$fpl$dadd) for __aeabi_dadd
    interpreter.o(i._ZN11INTERPRETER12CharToDoubleEPh) refers to interpreter.o(.data) for WeightI
    interpreter.o(i._ZN11INTERPRETER12LocalAnalyseEv) refers to daddsub_clz.o(x$fpl$dadd) for __aeabi_dadd
    interpreter.o(i._ZN11INTERPRETER12LocalAnalyseEv) refers to fdiv.o(x$fpl$fdiv) for __aeabi_fdiv
    interpreter.o(i._ZN11INTERPRETER12LocalAnalyseEv) refers to fleqf.o(x$fpl$fleqf) for __aeabi_cfcmple
    interpreter.o(i._ZN11INTERPRETER13CharToDecimalEPh) refers to interpreter.o(.data) for Weight
    interpreter.o(i._ZN11INTERPRETER14GetInstructionEv) refers to fconi.o(i._ZN5FCONI14GetFilePointerEv) for FCONI::GetFilePointer()
    interpreter.o(i._ZN11INTERPRETER14GetInstructionEv) refers to fconi.o(i._ZN5FCONI12FileReadLineEhPh) for FCONI::FileReadLine(unsigned char, unsigned char*)
    interpreter.o(i._ZN11INTERPRETER14GetInstructionEv) refers to interpreter.o(i._ZN11INTERPRETER13CharToDecimalEPh) for INTERPRETER::CharToDecimal(unsigned char*)
    interpreter.o(i._ZN11INTERPRETER14GetInstructionEv) refers to interpreter.o(i._ZN11INTERPRETER10AbsDecimalEi) for INTERPRETER::AbsDecimal(int)
    interpreter.o(i._ZN11INTERPRETER14GetInstructionEv) refers to interpreter.o(i._ZN11INTERPRETER12CharToDoubleEPh) for INTERPRETER::CharToDouble(unsigned char*)
    interpreter.o(i._ZN11INTERPRETER14GetInstructionEv) refers to interpreter.o(i._ZN11INTERPRETER9AxisRoundERdd) for INTERPRETER::AxisRound(double&, double)
    interpreter.o(i._ZN11INTERPRETER14GetInstructionEv) refers to dmul.o(x$fpl$dmul) for __aeabi_dmul
    interpreter.o(i._ZN11INTERPRETER14GetInstructionEv) refers to d2f.o(x$fpl$d2f) for __aeabi_d2f
    interpreter.o(i._ZN11INTERPRETER14GetInstructionEv) refers to fconi.o(.data) for Fconi
    interpreter.o(i._ZN11INTERPRETER14GetInstructionEv) refers to status.o(.bss) for Status
    interpreter.o(i._ZN11INTERPRETER5RoundEv) refers to interpreter.o(i._ZN11INTERPRETER14GetInstructionEv) for INTERPRETER::GetInstruction()
    interpreter.o(i._ZN11INTERPRETER5RoundEv) refers to interpreter.o(i._ZN11INTERPRETER12LocalAnalyseEv) for INTERPRETER::LocalAnalyse()
    interpreter.o(i._ZN11INTERPRETER5RoundEv) refers to interpreter.o(i._ZN11INTERPRETER11StatusCheckEv) for INTERPRETER::StatusCheck()
    interpreter.o(i._ZN11INTERPRETER5RoundEv) refers to interpreter.o(i._ZN11INTERPRETER7ProcessEv) for INTERPRETER::Process()
    interpreter.o(i._ZN11INTERPRETER5RoundEv) refers to status.o(.bss) for Status
    interpreter.o(i._ZN11INTERPRETER5RoundEv) refers to sconi.o(i._ZN5SCONI11GetStatusFAEv) for SCONI::GetStatusFA()
    interpreter.o(i._ZN11INTERPRETER5RoundEv) refers to sconi.o(i._ZN5SCONI12GetPositionXEv) for SCONI::GetPositionX()
    interpreter.o(i._ZN11INTERPRETER5RoundEv) refers to sconi.o(i._ZN5SCONI12GetPositionYEv) for SCONI::GetPositionY()
    interpreter.o(i._ZN11INTERPRETER5RoundEv) refers to sconi.o(i._ZN5SCONI12GetPositionZEv) for SCONI::GetPositionZ()
    interpreter.o(i._ZN11INTERPRETER5RoundEv) refers to sconi.o(i._ZN5SCONI12GetPositionAEv) for SCONI::GetPositionA()
    interpreter.o(i._ZN11INTERPRETER5RoundEv) refers to sconi.o(i._ZN5SCONI12GetPositionBEv) for SCONI::GetPositionB()
    interpreter.o(i._ZN11INTERPRETER5RoundEv) refers to rt_memclr_w.o(.text) for __aeabi_memclr4
    interpreter.o(i._ZN11INTERPRETER5RoundEv) refers to daddsub_clz.o(x$fpl$dadd) for __aeabi_dadd
    interpreter.o(i._ZN11INTERPRETER5RoundEv) refers to drleqf.o(x$fpl$drleqf) for __aeabi_cdrcmple
    interpreter.o(i._ZN11INTERPRETER5RoundEv) refers to sconi.o(i._ZN5SCONI6MotionEPdf) for SCONI::Motion(double*, float)
    interpreter.o(i._ZN11INTERPRETER5RoundEv) refers to interpreter.o(i._ZN11INTERPRETER5ResetEv) for INTERPRETER::Reset()
    interpreter.o(i._ZN11INTERPRETER5RoundEv) refers to sconi.o(.data) for Sconi
    interpreter.o(i._ZN11INTERPRETER5StartEv) refers to interpreter.o(i._ZN11INTERPRETER5ResetEv) for INTERPRETER::Reset()
    interpreter.o(i._ZN11INTERPRETER5StartEv) refers to interpreter.o(i._ZN11INTERPRETER8PreCheckEv) for INTERPRETER::PreCheck()
    interpreter.o(i._ZN11INTERPRETER7ProcessEv) refers to sconi.o(i._ZN5SCONI6MotionEPdf) for SCONI::Motion(double*, float)
    interpreter.o(i._ZN11INTERPRETER7ProcessEv) refers to sconi.o(i._ZN5SCONI11GetStatusFAEv) for SCONI::GetStatusFA()
    interpreter.o(i._ZN11INTERPRETER7ProcessEv) refers to sconi.o(i._ZN5SCONI12GetPositionXEv) for SCONI::GetPositionX()
    interpreter.o(i._ZN11INTERPRETER7ProcessEv) refers to sconi.o(i._ZN5SCONI12GetPositionYEv) for SCONI::GetPositionY()
    interpreter.o(i._ZN11INTERPRETER7ProcessEv) refers to sconi.o(i._ZN5SCONI12GetPositionZEv) for SCONI::GetPositionZ()
    interpreter.o(i._ZN11INTERPRETER7ProcessEv) refers to sconi.o(i._ZN5SCONI12GetPositionAEv) for SCONI::GetPositionA()
    interpreter.o(i._ZN11INTERPRETER7ProcessEv) refers to sconi.o(i._ZN5SCONI12GetPositionBEv) for SCONI::GetPositionB()
    interpreter.o(i._ZN11INTERPRETER7ProcessEv) refers to sconi.o(i._ZN5SCONI11SetPositionEdc) for SCONI::SetPosition(double, char)
    interpreter.o(i._ZN11INTERPRETER7ProcessEv) refers to sconi.o(.data) for Sconi
    interpreter.o(i._ZN11INTERPRETER7ProcessEv) refers to status.o(.bss) for Status
    interpreter.o(i._ZN11INTERPRETER7ProcessEv) refers to tconi.o(i._ZN5TCONI23SetTemperatureEASettingEt) for TCONI::SetTemperatureEASetting(unsigned short)
    interpreter.o(i._ZN11INTERPRETER7ProcessEv) refers to tconi.o(i._ZN5TCONI23SetTemperatureEBSettingEt) for TCONI::SetTemperatureEBSetting(unsigned short)
    interpreter.o(i._ZN11INTERPRETER7ProcessEv) refers to tconi.o(i._ZN5TCONI23SetCoolerPowerExtruderAEh) for TCONI::SetCoolerPowerExtruderA(unsigned char)
    interpreter.o(i._ZN11INTERPRETER7ProcessEv) refers to tconi.o(i._ZN5TCONI23SetCoolerPowerExtruderBEh) for TCONI::SetCoolerPowerExtruderB(unsigned char)
    interpreter.o(i._ZN11INTERPRETER7ProcessEv) refers to tconi.o(i._ZN5TCONI18GetStatusExtruderAEv) for TCONI::GetStatusExtruderA()
    interpreter.o(i._ZN11INTERPRETER7ProcessEv) refers to tconi.o(i._ZN5TCONI23GetTemperatureExtruderAEv) for TCONI::GetTemperatureExtruderA()
    interpreter.o(i._ZN11INTERPRETER7ProcessEv) refers to tconi.o(i._ZN5TCONI23GetTemperatureEASettingEv) for TCONI::GetTemperatureEASetting()
    interpreter.o(i._ZN11INTERPRETER7ProcessEv) refers to tconi.o(i._ZN5TCONI18GetStatusExtruderBEv) for TCONI::GetStatusExtruderB()
    interpreter.o(i._ZN11INTERPRETER7ProcessEv) refers to tconi.o(i._ZN5TCONI23GetTemperatureExtruderBEv) for TCONI::GetTemperatureExtruderB()
    interpreter.o(i._ZN11INTERPRETER7ProcessEv) refers to tconi.o(i._ZN5TCONI23GetTemperatureEBSettingEv) for TCONI::GetTemperatureEBSetting()
    interpreter.o(i._ZN11INTERPRETER7ProcessEv) refers to tconi.o(.data) for Tconi
    interpreter.o(i._ZN11INTERPRETER7ProcessEv) refers to tconi.o(i._ZN5TCONI23SetTemperatureBPSettingEt) for TCONI::SetTemperatureBPSetting(unsigned short)
    interpreter.o(i._ZN11INTERPRETER7ProcessEv) refers to tconi.o(i._ZN5TCONI18GetStatusBasePlaneEv) for TCONI::GetStatusBasePlane()
    interpreter.o(i._ZN11INTERPRETER7ProcessEv) refers to tconi.o(i._ZN5TCONI23GetTemperatureBasePlaneEv) for TCONI::GetTemperatureBasePlane()
    interpreter.o(i._ZN11INTERPRETER7ProcessEv) refers to tconi.o(i._ZN5TCONI23GetTemperatureBPSettingEv) for TCONI::GetTemperatureBPSetting()
    interpreter.o(i._ZN11INTERPRETER7ProcessEv) refers to sconi.o(i._ZN5SCONI14SetNozzleStateEhh) for SCONI::SetNozzleState(unsigned char, unsigned char)
    interpreter.o(i._ZN11INTERPRETER7ProcessEv) refers to sconi.o(i._ZN5SCONI13GetStatusBusyEv) for SCONI::GetStatusBusy()
    interpreter.o(i._ZN11INTERPRETER8PreCheckEv) refers to sconi.o(i._ZN5SCONI8TestLinkEv) for SCONI::TestLink()
    interpreter.o(i._ZN11INTERPRETER8PreCheckEv) refers to tconi.o(i._ZN5TCONI8TestLinkEv) for TCONI::TestLink()
    interpreter.o(i._ZN11INTERPRETER8PreCheckEv) refers to fconi.o(i._ZN5FCONI8TestLinkEv) for FCONI::TestLink()
    interpreter.o(i._ZN11INTERPRETER8PreCheckEv) refers to auxio.o(i._ZN5AUXIO8TestLinkEv) for AUXIO::TestLink()
    interpreter.o(i._ZN11INTERPRETER8PreCheckEv) refers to sconi.o(i._ZN5SCONI14GetStatusHomedEv) for SCONI::GetStatusHomed()
    interpreter.o(i._ZN11INTERPRETER8PreCheckEv) refers to fconi.o(i._ZN5FCONI8FileOpenEv) for FCONI::FileOpen()
    interpreter.o(i._ZN11INTERPRETER8PreCheckEv) refers to sconi.o(i._ZN5SCONI12GetPositionXEv) for SCONI::GetPositionX()
    interpreter.o(i._ZN11INTERPRETER8PreCheckEv) refers to sconi.o(i._ZN5SCONI12GetPositionYEv) for SCONI::GetPositionY()
    interpreter.o(i._ZN11INTERPRETER8PreCheckEv) refers to sconi.o(i._ZN5SCONI12GetPositionZEv) for SCONI::GetPositionZ()
    interpreter.o(i._ZN11INTERPRETER8PreCheckEv) refers to sconi.o(i._ZN5SCONI12GetPositionAEv) for SCONI::GetPositionA()
    interpreter.o(i._ZN11INTERPRETER8PreCheckEv) refers to sconi.o(i._ZN5SCONI12GetPositionBEv) for SCONI::GetPositionB()
    interpreter.o(i._ZN11INTERPRETER8PreCheckEv) refers to sconi.o(.data) for Sconi
    interpreter.o(i._ZN11INTERPRETER8PreCheckEv) refers to tconi.o(.data) for Tconi
    interpreter.o(i._ZN11INTERPRETER8PreCheckEv) refers to fconi.o(.data) for Fconi
    interpreter.o(i._ZN11INTERPRETER8PreCheckEv) refers to auxio.o(.data) for AuxIO
    interpreter.o(i._ZN11INTERPRETER8PreCheckEv) refers to status.o(.bss) for Status
    interpreter.o(i._ZN11INTERPRETER9AbsDoubleEd) refers to dleqf.o(x$fpl$dleqf) for __aeabi_cdcmple
    interpreter.o(i._ZN11INTERPRETER9AxisRoundERdd) refers to ddiv.o(x$fpl$ddiv) for __aeabi_ddiv
    interpreter.o(i._ZN11INTERPRETER9AxisRoundERdd) refers to dfixll.o(x$fpl$llsfromd) for __aeabi_d2lz
    interpreter.o(i._ZN11INTERPRETER9AxisRoundERdd) refers to dfltll_clz.o(x$fpl$dfltll) for __aeabi_l2d
    interpreter.o(i._ZN11INTERPRETER9AxisRoundERdd) refers to dmul.o(x$fpl$dmul) for __aeabi_dmul
    interpreter.o(.ARM.exidx) refers to interpreter.o(i._ZN11INTERPRETER4InitEv) for i._ZN11INTERPRETER4InitEv
    interpreter.o(.ARM.exidx) refers to interpreter.o(i._ZN11INTERPRETER5ResetEv) for i._ZN11INTERPRETER5ResetEv
    interpreter.o(.ARM.exidx) refers to interpreter.o(i._ZN11INTERPRETER7ProcessEv) for i._ZN11INTERPRETER7ProcessEv
    interpreter.o(.ARM.exidx) refers to interpreter.o(i._ZN11INTERPRETER11StatusCheckEv) for i._ZN11INTERPRETER11StatusCheckEv
    interpreter.o(.ARM.exidx) refers to interpreter.o(i._ZN11INTERPRETER12LocalAnalyseEv) for i._ZN11INTERPRETER12LocalAnalyseEv
    interpreter.o(.ARM.exidx) refers to interpreter.o(i._ZN11INTERPRETER13CharToDecimalEPh) for i._ZN11INTERPRETER13CharToDecimalEPh
    interpreter.o(.ARM.exidx) refers to interpreter.o(i._ZN11INTERPRETER10AbsDecimalEi) for i._ZN11INTERPRETER10AbsDecimalEi
    interpreter.o(.ARM.exidx) refers to interpreter.o(i._ZN11INTERPRETER12CharToDoubleEPh) for i._ZN11INTERPRETER12CharToDoubleEPh
    interpreter.o(.ARM.exidx) refers to interpreter.o(i._ZN11INTERPRETER9AxisRoundERdd) for i._ZN11INTERPRETER9AxisRoundERdd
    interpreter.o(.ARM.exidx) refers to interpreter.o(i._ZN11INTERPRETER14GetInstructionEv) for i._ZN11INTERPRETER14GetInstructionEv
    interpreter.o(.ARM.exidx) refers to interpreter.o(i._ZN11INTERPRETER5RoundEv) for i._ZN11INTERPRETER5RoundEv
    interpreter.o(.ARM.exidx) refers to interpreter.o(i._ZN11INTERPRETER8PreCheckEv) for i._ZN11INTERPRETER8PreCheckEv
    interpreter.o(.ARM.exidx) refers to interpreter.o(i._ZN11INTERPRETER5StartEv) for i._ZN11INTERPRETER5StartEv
    interpreter.o(.ARM.exidx) refers to interpreter.o(i._ZN11INTERPRETER4StopEv) for i._ZN11INTERPRETER4StopEv
    interpreter.o(.ARM.exidx) refers to interpreter.o(i._ZN11INTERPRETER5PauseEv) for i._ZN11INTERPRETER5PauseEv
    interpreter.o(.ARM.exidx) refers to interpreter.o(i._ZN11INTERPRETER6ResumeEv) for i._ZN11INTERPRETER6ResumeEv
    interpreter.o(.ARM.exidx) refers to interpreter.o(i._ZN11INTERPRETER6ReLoadEv) for i._ZN11INTERPRETER6ReLoadEv
    interpreter.o(.ARM.exidx) refers to interpreter.o(i._ZN11INTERPRETER4TickEv) for i._ZN11INTERPRETER4TickEv
    interpreter.o(.ARM.exidx) refers to interpreter.o(i._ZN11INTERPRETER9AbsDoubleEd) for i._ZN11INTERPRETER9AbsDoubleEd
    rtclock.o(i._ZN7RTCLOCK11IIC_WaitAckEv) refers to rtclock.o(i._Z7IIC_SDAb) for IIC_SDA(bool)
    rtclock.o(i._ZN7RTCLOCK11IIC_WaitAckEv) refers to rtclock.o(i._ZN7RTCLOCK7DelayUsEh) for RTCLOCK::DelayUs(unsigned char)
    rtclock.o(i._ZN7RTCLOCK11IIC_WaitAckEv) refers to rtclock.o(i._Z7IIC_SCLb) for IIC_SCL(bool)
    rtclock.o(i._ZN7RTCLOCK11IIC_WaitAckEv) refers to rtclock.o(i._ZN7RTCLOCK8IIC_StopEv) for RTCLOCK::IIC_Stop()
    rtclock.o(i._ZN7RTCLOCK11IIC_WaitAckEv) refers to rtclock.o(i._Z10IIC_GetSDAv) for IIC_GetSDA()
    rtclock.o(i._ZN7RTCLOCK11WriteEnableEv) refers to rtclock.o(i._ZN7RTCLOCK9WriteDataEhh) for RTCLOCK::WriteData(unsigned char, unsigned char)
    rtclock.o(i._ZN7RTCLOCK11WriteEnableEv) refers to rtclock.o(i._ZN7RTCLOCK8ReadDataEh) for RTCLOCK::ReadData(unsigned char)
    rtclock.o(i._ZN7RTCLOCK12IIC_ReadByteEb) refers to rtclock.o(i._Z7IIC_SDAb) for IIC_SDA(bool)
    rtclock.o(i._ZN7RTCLOCK12IIC_ReadByteEb) refers to rtclock.o(i._Z7IIC_SCLb) for IIC_SCL(bool)
    rtclock.o(i._ZN7RTCLOCK12IIC_ReadByteEb) refers to rtclock.o(i._ZN7RTCLOCK7DelayUsEh) for RTCLOCK::DelayUs(unsigned char)
    rtclock.o(i._ZN7RTCLOCK12IIC_ReadByteEb) refers to rtclock.o(i._Z10IIC_GetSDAv) for IIC_GetSDA()
    rtclock.o(i._ZN7RTCLOCK12IIC_ReadByteEb) refers to rtclock.o(i._ZN7RTCLOCK8IIC_NAckEv) for RTCLOCK::IIC_NAck()
    rtclock.o(i._ZN7RTCLOCK12IIC_ReadByteEb) refers to rtclock.o(i._ZN7RTCLOCK7IIC_AckEv) for RTCLOCK::IIC_Ack()
    rtclock.o(i._ZN7RTCLOCK12IIC_SendByteEh) refers to rtclock.o(i._Z7IIC_SDAb) for IIC_SDA(bool)
    rtclock.o(i._ZN7RTCLOCK12IIC_SendByteEh) refers to rtclock.o(i._Z7IIC_SCLb) for IIC_SCL(bool)
    rtclock.o(i._ZN7RTCLOCK12IIC_SendByteEh) refers to rtclock.o(i._ZN7RTCLOCK7DelayUsEh) for RTCLOCK::DelayUs(unsigned char)
    rtclock.o(i._ZN7RTCLOCK12WriteDisableEv) refers to rtclock.o(i._ZN7RTCLOCK9WriteDataEhh) for RTCLOCK::WriteData(unsigned char, unsigned char)
    rtclock.o(i._ZN7RTCLOCK12WriteDisableEv) refers to rtclock.o(i._ZN7RTCLOCK8ReadDataEh) for RTCLOCK::ReadData(unsigned char)
    rtclock.o(i._ZN7RTCLOCK4InitEv) refers to rtclock.o(i._ZN7RTCLOCK8IIC_InitEv) for RTCLOCK::IIC_Init()
    rtclock.o(i._ZN7RTCLOCK4InitEv) refers to rtclock.o(i._ZN7RTCLOCK5WriteEhh) for RTCLOCK::Write(unsigned char, unsigned char)
    rtclock.o(i._ZN7RTCLOCK4InitEv) refers to rtclock.o(i._ZN7RTCLOCK7GetTimeEv) for RTCLOCK::GetTime()
    rtclock.o(i._ZN7RTCLOCK4ReadERhh) refers to rtclock.o(i._ZN7RTCLOCK8ReadDataEh) for RTCLOCK::ReadData(unsigned char)
    rtclock.o(i._ZN7RTCLOCK5WriteEhh) refers to rtclock.o(i._ZN7RTCLOCK11WriteEnableEv) for RTCLOCK::WriteEnable()
    rtclock.o(i._ZN7RTCLOCK5WriteEhh) refers to rtclock.o(i._ZN7RTCLOCK9WriteDataEhh) for RTCLOCK::WriteData(unsigned char, unsigned char)
    rtclock.o(i._ZN7RTCLOCK5WriteEhh) refers to rtclock.o(i._ZN7RTCLOCK8ReadDataEh) for RTCLOCK::ReadData(unsigned char)
    rtclock.o(i._ZN7RTCLOCK5WriteEhh) refers to rtclock.o(i._ZN7RTCLOCK12WriteDisableEv) for RTCLOCK::WriteDisable()
    rtclock.o(i._ZN7RTCLOCK7GetTimeEv) refers to rtclock.o(i._ZN7RTCLOCK4ReadERhh) for RTCLOCK::Read(unsigned char&, unsigned char)
    rtclock.o(i._ZN7RTCLOCK7GetTimeEv) refers to status.o(.bss) for Status
    rtclock.o(i._ZN7RTCLOCK7IIC_AckEv) refers to rtclock.o(i._Z7IIC_SCLb) for IIC_SCL(bool)
    rtclock.o(i._ZN7RTCLOCK7IIC_AckEv) refers to rtclock.o(i._Z7IIC_SDAb) for IIC_SDA(bool)
    rtclock.o(i._ZN7RTCLOCK7IIC_AckEv) refers to rtclock.o(i._ZN7RTCLOCK7DelayUsEh) for RTCLOCK::DelayUs(unsigned char)
    rtclock.o(i._ZN7RTCLOCK8IIC_InitEv) refers to rtclock.o(i._Z7IIC_SCLb) for IIC_SCL(bool)
    rtclock.o(i._ZN7RTCLOCK8IIC_InitEv) refers to rtclock.o(i._Z7IIC_SDAb) for IIC_SDA(bool)
    rtclock.o(i._ZN7RTCLOCK8IIC_NAckEv) refers to rtclock.o(i._Z7IIC_SCLb) for IIC_SCL(bool)
    rtclock.o(i._ZN7RTCLOCK8IIC_NAckEv) refers to rtclock.o(i._Z7IIC_SDAb) for IIC_SDA(bool)
    rtclock.o(i._ZN7RTCLOCK8IIC_NAckEv) refers to rtclock.o(i._ZN7RTCLOCK7DelayUsEh) for RTCLOCK::DelayUs(unsigned char)
    rtclock.o(i._ZN7RTCLOCK8IIC_StopEv) refers to rtclock.o(i._Z7IIC_SCLb) for IIC_SCL(bool)
    rtclock.o(i._ZN7RTCLOCK8IIC_StopEv) refers to rtclock.o(i._Z7IIC_SDAb) for IIC_SDA(bool)
    rtclock.o(i._ZN7RTCLOCK8IIC_StopEv) refers to rtclock.o(i._ZN7RTCLOCK7DelayUsEh) for RTCLOCK::DelayUs(unsigned char)
    rtclock.o(i._ZN7RTCLOCK8ReadDataEh) refers to rtclock.o(i._ZN7RTCLOCK9IIC_StartEv) for RTCLOCK::IIC_Start()
    rtclock.o(i._ZN7RTCLOCK8ReadDataEh) refers to rtclock.o(i._ZN7RTCLOCK12IIC_SendByteEh) for RTCLOCK::IIC_SendByte(unsigned char)
    rtclock.o(i._ZN7RTCLOCK8ReadDataEh) refers to rtclock.o(i._ZN7RTCLOCK11IIC_WaitAckEv) for RTCLOCK::IIC_WaitAck()
    rtclock.o(i._ZN7RTCLOCK8ReadDataEh) refers to rtclock.o(i._ZN7RTCLOCK12IIC_ReadByteEb) for RTCLOCK::IIC_ReadByte(bool)
    rtclock.o(i._ZN7RTCLOCK8ReadDataEh) refers to rtclock.o(i._ZN7RTCLOCK8IIC_StopEv) for RTCLOCK::IIC_Stop()
    rtclock.o(i._ZN7RTCLOCK9IIC_StartEv) refers to rtclock.o(i._Z7IIC_SDAb) for IIC_SDA(bool)
    rtclock.o(i._ZN7RTCLOCK9IIC_StartEv) refers to rtclock.o(i._Z7IIC_SCLb) for IIC_SCL(bool)
    rtclock.o(i._ZN7RTCLOCK9IIC_StartEv) refers to rtclock.o(i._ZN7RTCLOCK7DelayUsEh) for RTCLOCK::DelayUs(unsigned char)
    rtclock.o(i._ZN7RTCLOCK9WriteDataEhh) refers to rtclock.o(i._ZN7RTCLOCK9IIC_StartEv) for RTCLOCK::IIC_Start()
    rtclock.o(i._ZN7RTCLOCK9WriteDataEhh) refers to rtclock.o(i._ZN7RTCLOCK12IIC_SendByteEh) for RTCLOCK::IIC_SendByte(unsigned char)
    rtclock.o(i._ZN7RTCLOCK9WriteDataEhh) refers to rtclock.o(i._ZN7RTCLOCK11IIC_WaitAckEv) for RTCLOCK::IIC_WaitAck()
    rtclock.o(i._ZN7RTCLOCK9WriteDataEhh) refers to rtclock.o(i._ZN7RTCLOCK8IIC_StopEv) for RTCLOCK::IIC_Stop()
    rtclock.o(.ARM.exidx) refers to rtclock.o(i._ZN7RTCLOCK7DelayUsEh) for i._ZN7RTCLOCK7DelayUsEh
    rtclock.o(.ARM.exidx) refers to rtclock.o(i._ZN7RTCLOCK8IIC_StopEv) for i._ZN7RTCLOCK8IIC_StopEv
    rtclock.o(.ARM.exidx) refers to rtclock.o(i._ZN7RTCLOCK7IIC_AckEv) for i._ZN7RTCLOCK7IIC_AckEv
    rtclock.o(.ARM.exidx) refers to rtclock.o(i._ZN7RTCLOCK8IIC_NAckEv) for i._ZN7RTCLOCK8IIC_NAckEv
    rtclock.o(.ARM.exidx) refers to rtclock.o(i._ZN7RTCLOCK12IIC_ReadByteEb) for i._ZN7RTCLOCK12IIC_ReadByteEb
    rtclock.o(.ARM.exidx) refers to rtclock.o(i._ZN7RTCLOCK11IIC_WaitAckEv) for i._ZN7RTCLOCK11IIC_WaitAckEv
    rtclock.o(.ARM.exidx) refers to rtclock.o(i._ZN7RTCLOCK12IIC_SendByteEh) for i._ZN7RTCLOCK12IIC_SendByteEh
    rtclock.o(.ARM.exidx) refers to rtclock.o(i._ZN7RTCLOCK9IIC_StartEv) for i._ZN7RTCLOCK9IIC_StartEv
    rtclock.o(.ARM.exidx) refers to rtclock.o(i._ZN7RTCLOCK8ReadDataEh) for i._ZN7RTCLOCK8ReadDataEh
    rtclock.o(.ARM.exidx) refers to rtclock.o(i._ZN7RTCLOCK4ReadERhh) for i._ZN7RTCLOCK4ReadERhh
    rtclock.o(.ARM.exidx) refers to rtclock.o(i._ZN7RTCLOCK7GetTimeEv) for i._ZN7RTCLOCK7GetTimeEv
    rtclock.o(.ARM.exidx) refers to rtclock.o(i._ZN7RTCLOCK9WriteDataEhh) for i._ZN7RTCLOCK9WriteDataEhh
    rtclock.o(.ARM.exidx) refers to rtclock.o(i._ZN7RTCLOCK12WriteDisableEv) for i._ZN7RTCLOCK12WriteDisableEv
    rtclock.o(.ARM.exidx) refers to rtclock.o(i._ZN7RTCLOCK11WriteEnableEv) for i._ZN7RTCLOCK11WriteEnableEv
    rtclock.o(.ARM.exidx) refers to rtclock.o(i._ZN7RTCLOCK5WriteEhh) for i._ZN7RTCLOCK5WriteEhh
    rtclock.o(.ARM.exidx) refers to rtclock.o(i._ZN7RTCLOCK8IIC_InitEv) for i._ZN7RTCLOCK8IIC_InitEv
    rtclock.o(.ARM.exidx) refers to rtclock.o(i._ZN7RTCLOCK4InitEv) for i._ZN7RTCLOCK4InitEv
    rtclock.o(.ARM.exidx) refers to rtclock.o(i._ZN7RTCLOCK7SetTimeEv) for i._ZN7RTCLOCK7SetTimeEv
    startup_stm32f10x_md.o(STACK) refers (Special) to heapauxi.o(.text) for __use_two_region_memory
    startup_stm32f10x_md.o(HEAP) refers (Special) to heapauxi.o(.text) for __use_two_region_memory
    startup_stm32f10x_md.o(RESET) refers (Special) to heapauxi.o(.text) for __use_two_region_memory
    startup_stm32f10x_md.o(RESET) refers to startup_stm32f10x_md.o(STACK) for __initial_sp
    startup_stm32f10x_md.o(RESET) refers to startup_stm32f10x_md.o(.text) for Reset_Handler
    startup_stm32f10x_md.o(RESET) refers to automate.o(i.TIM3_IRQHandler) for TIM3_IRQHandler
    startup_stm32f10x_md.o(RESET) refers to abus.o(i.USART1_IRQHandler) for USART1_IRQHandler
    startup_stm32f10x_md.o(RESET) refers to ibus.o(i.USART2_IRQHandler) for USART2_IRQHandler
    startup_stm32f10x_md.o(RESET) refers to cbus.o(i.USART3_IRQHandler) for USART3_IRQHandler
    startup_stm32f10x_md.o(.text) refers (Special) to heapauxi.o(.text) for __use_two_region_memory
    startup_stm32f10x_md.o(.text) refers to system_stm32f10x.o(i.SystemInit) for SystemInit
    startup_stm32f10x_md.o(.text) refers to __main.o(!!!main) for __main
    startup_stm32f10x_md.o(.text) refers to startup_stm32f10x_md.o(HEAP) for Heap_Mem
    startup_stm32f10x_md.o(.text) refers to startup_stm32f10x_md.o(STACK) for Stack_Mem
    system_stm32f10x.o(i.SetSysClock) refers to system_stm32f10x.o(i.SetSysClockTo72) for SetSysClockTo72
    system_stm32f10x.o(i.SystemCoreClockUpdate) refers to system_stm32f10x.o(.data) for SystemCoreClock
    system_stm32f10x.o(i.SystemInit) refers to system_stm32f10x.o(i.SetSysClock) for SetSysClock
    llsdiv.o(.text) refers to lludivv7m.o(.text) for __aeabi_uldivmod
    __main.o(!!!main) refers to __rtentry.o(.ARM.Collect$$rtentry$$00000000) for __rt_entry
    d2f.o(x$fpl$d2f) refers (Special) to usenofp.o(x$fpl$usenofp) for __I$use$fp
    d2f.o(x$fpl$d2f) refers to fretinf.o(x$fpl$fretinf) for __fpl_fretinf
    d2f.o(x$fpl$d2f) refers to dnaninf.o(x$fpl$dnaninf) for __fpl_dnaninf
    daddsub_clz.o(x$fpl$dadd) refers (Special) to usenofp.o(x$fpl$usenofp) for __I$use$fp
    daddsub_clz.o(x$fpl$dadd) refers to daddsub_clz.o(x$fpl$dsub) for _dsub1
    daddsub_clz.o(x$fpl$dadd) refers to dretinf.o(x$fpl$dretinf) for __fpl_dretinf
    daddsub_clz.o(x$fpl$dadd) refers to dnaninf.o(x$fpl$dnaninf) for __fpl_dnaninf
    daddsub_clz.o(x$fpl$drsb) refers (Special) to usenofp.o(x$fpl$usenofp) for __I$use$fp
    daddsub_clz.o(x$fpl$drsb) refers to daddsub_clz.o(x$fpl$dadd) for _dadd1
    daddsub_clz.o(x$fpl$drsb) refers to daddsub_clz.o(x$fpl$dsub) for _dsub1
    daddsub_clz.o(x$fpl$dsub) refers (Special) to usenofp.o(x$fpl$usenofp) for __I$use$fp
    daddsub_clz.o(x$fpl$dsub) refers to daddsub_clz.o(x$fpl$dadd) for _dadd1
    daddsub_clz.o(x$fpl$dsub) refers to dnaninf.o(x$fpl$dnaninf) for __fpl_dnaninf
    ddiv.o(x$fpl$drdiv) refers (Special) to usenofp.o(x$fpl$usenofp) for __I$use$fp
    ddiv.o(x$fpl$drdiv) refers to ddiv.o(x$fpl$ddiv) for ddiv_entry
    ddiv.o(x$fpl$ddiv) refers (Special) to usenofp.o(x$fpl$usenofp) for __I$use$fp
    ddiv.o(x$fpl$ddiv) refers to dretinf.o(x$fpl$dretinf) for __fpl_dretinf
    ddiv.o(x$fpl$ddiv) refers to dnaninf.o(x$fpl$dnaninf) for __fpl_dnaninf
    dfixll.o(x$fpl$llsfromd) refers (Special) to usenofp.o(x$fpl$usenofp) for __I$use$fp
    dfixll.o(x$fpl$llsfromd) refers to dnaninf.o(x$fpl$dnaninf) for __fpl_dnaninf
    dfixll.o(x$fpl$llsfromdr) refers (Special) to usenofp.o(x$fpl$usenofp) for __I$use$fp
    dfixll.o(x$fpl$llsfromdr) refers to dnaninf.o(x$fpl$dnaninf) for __fpl_dnaninf
    dfixu.o(x$fpl$dfixu) refers (Special) to usenofp.o(x$fpl$usenofp) for __I$use$fp
    dfixu.o(x$fpl$dfixu) refers to dnaninf.o(x$fpl$dnaninf) for __fpl_dnaninf
    dfixu.o(x$fpl$dfixur) refers (Special) to usenofp.o(x$fpl$usenofp) for __I$use$fp
    dfixu.o(x$fpl$dfixur) refers to dnaninf.o(x$fpl$dnaninf) for __fpl_dnaninf
    dflt_clz.o(x$fpl$dfltu) refers (Special) to usenofp.o(x$fpl$usenofp) for __I$use$fp
    dflt_clz.o(x$fpl$dflt) refers (Special) to usenofp.o(x$fpl$usenofp) for __I$use$fp
    dflt_clz.o(x$fpl$dfltn) refers (Special) to usenofp.o(x$fpl$usenofp) for __I$use$fp
    dfltll_clz.o(x$fpl$dfltll) refers (Special) to usenofp.o(x$fpl$usenofp) for __I$use$fp
    dfltll_clz.o(x$fpl$dfltull) refers (Special) to usenofp.o(x$fpl$usenofp) for __I$use$fp
    dleqf.o(x$fpl$dleqf) refers (Special) to usenofp.o(x$fpl$usenofp) for __I$use$fp
    dleqf.o(x$fpl$dleqf) refers to dnaninf.o(x$fpl$dnaninf) for __fpl_dnaninf
    dleqf.o(x$fpl$dleqf) refers to dcmpi.o(x$fpl$dcmpinf) for __fpl_dcmp_Inf
    dmul.o(x$fpl$dmul) refers (Special) to usenofp.o(x$fpl$usenofp) for __I$use$fp
    dmul.o(x$fpl$dmul) refers to dretinf.o(x$fpl$dretinf) for __fpl_dretinf
    dmul.o(x$fpl$dmul) refers to dnaninf.o(x$fpl$dnaninf) for __fpl_dnaninf
    drleqf.o(x$fpl$drleqf) refers (Special) to usenofp.o(x$fpl$usenofp) for __I$use$fp
    drleqf.o(x$fpl$drleqf) refers to dleqf.o(x$fpl$dleqf) for __fpl_dcmple_InfNaN
    f2d.o(x$fpl$f2d) refers (Special) to usenofp.o(x$fpl$usenofp) for __I$use$fp
    f2d.o(x$fpl$f2d) refers to fnaninf.o(x$fpl$fnaninf) for __fpl_fnaninf
    f2d.o(x$fpl$f2d) refers to dretinf.o(x$fpl$dretinf) for __fpl_dretinf
    fdiv.o(x$fpl$frdiv) refers (Special) to usenofp.o(x$fpl$usenofp) for __I$use$fp
    fdiv.o(x$fpl$frdiv) refers to fdiv.o(x$fpl$fdiv) for _fdiv1
    fdiv.o(x$fpl$fdiv) refers (Special) to usenofp.o(x$fpl$usenofp) for __I$use$fp
    fdiv.o(x$fpl$fdiv) refers to fretinf.o(x$fpl$fretinf) for __fpl_fretinf
    fdiv.o(x$fpl$fdiv) refers to fnaninf.o(x$fpl$fnaninf) for __fpl_fnaninf
    fleqf.o(x$fpl$fleqf) refers (Special) to usenofp.o(x$fpl$usenofp) for __I$use$fp
    fleqf.o(x$fpl$fleqf) refers to fnaninf.o(x$fpl$fnaninf) for __fpl_fnaninf
    fleqf.o(x$fpl$fleqf) refers to fcmpi.o(x$fpl$fcmpinf) for __fpl_fcmp_Inf
    frleqf.o(x$fpl$frleqf) refers (Special) to usenofp.o(x$fpl$usenofp) for __I$use$fp
    frleqf.o(x$fpl$frleqf) refers to fleqf.o(x$fpl$fleqf) for __fpl_fcmple_InfNaN
    __rtentry.o(.ARM.Collect$$rtentry$$00000000) refers (Special) to __rtentry2.o(.ARM.Collect$$rtentry$$0000000A) for __rt_entry_li
    __rtentry.o(.ARM.Collect$$rtentry$$00000000) refers (Special) to __rtentry2.o(.ARM.Collect$$rtentry$$0000000D) for __rt_entry_main
    __rtentry.o(.ARM.Collect$$rtentry$$00000000) refers (Special) to __rtentry2.o(.ARM.Collect$$rtentry$$0000000C) for __rt_entry_postli_1
    __rtentry.o(.ARM.Collect$$rtentry$$00000000) refers (Special) to __rtentry2.o(.ARM.Collect$$rtentry$$00000009) for __rt_entry_postsh_1
    __rtentry.o(.ARM.Collect$$rtentry$$00000000) refers (Special) to __rtentry2.o(.ARM.Collect$$rtentry$$00000002) for __rt_entry_presh_1
    __rtentry.o(.ARM.Collect$$rtentry$$00000000) refers (Special) to __rtentry4.o(.ARM.Collect$$rtentry$$00000004) for __rt_entry_sh
    aeabi_ldiv0_sigfpe.o(.text) refers to rt_div0.o(.text) for __rt_div0
    dcmpi.o(x$fpl$dcmpinf) refers (Special) to usenofp.o(x$fpl$usenofp) for __I$use$fp
    dnaninf.o(x$fpl$dnaninf) refers (Special) to usenofp.o(x$fpl$usenofp) for __I$use$fp
    dretinf.o(x$fpl$dretinf) refers (Special) to usenofp.o(x$fpl$usenofp) for __I$use$fp
    fcmpi.o(x$fpl$fcmpinf) refers (Special) to usenofp.o(x$fpl$usenofp) for __I$use$fp
    fnaninf.o(x$fpl$fnaninf) refers (Special) to usenofp.o(x$fpl$usenofp) for __I$use$fp
    fretinf.o(x$fpl$fretinf) refers (Special) to usenofp.o(x$fpl$usenofp) for __I$use$fp
    __rtentry2.o(.ARM.Collect$$rtentry$$00000008) refers to boardinit2.o(.text) for _platform_post_stackheap_init
    __rtentry2.o(.ARM.Collect$$rtentry$$0000000A) refers to libinit.o(.ARM.Collect$$libinit$$00000000) for __rt_lib_init
    __rtentry2.o(.ARM.Collect$$rtentry$$0000000B) refers to boardinit3.o(.text) for _platform_post_lib_init
    __rtentry2.o(.ARM.Collect$$rtentry$$0000000D) refers to main.o(i.main) for main
    __rtentry2.o(.ARM.Collect$$rtentry$$0000000D) refers to exit.o(.text) for exit
    __rtentry2.o(.ARM.exidx) refers to __rtentry2.o(.ARM.Collect$$rtentry$$00000001) for .ARM.Collect$$rtentry$$00000001
    __rtentry2.o(.ARM.exidx) refers to __rtentry2.o(.ARM.Collect$$rtentry$$00000008) for .ARM.Collect$$rtentry$$00000008
    __rtentry2.o(.ARM.exidx) refers to __rtentry2.o(.ARM.Collect$$rtentry$$0000000A) for .ARM.Collect$$rtentry$$0000000A
    __rtentry2.o(.ARM.exidx) refers to __rtentry2.o(.ARM.Collect$$rtentry$$0000000B) for .ARM.Collect$$rtentry$$0000000B
    __rtentry2.o(.ARM.exidx) refers to __rtentry2.o(.ARM.Collect$$rtentry$$0000000D) for .ARM.Collect$$rtentry$$0000000D
    __rtentry4.o(.ARM.Collect$$rtentry$$00000004) refers to sys_stackheap_outer.o(.text) for __user_setup_stackheap
    __rtentry4.o(.ARM.exidx) refers to __rtentry4.o(.ARM.Collect$$rtentry$$00000004) for .ARM.Collect$$rtentry$$00000004
    rt_div0.o(.text) refers to defsig_fpe_outer.o(.text) for __rt_SIGFPE
    sys_stackheap_outer.o(.text) refers to libspace.o(.text) for __user_perproc_libspace
    sys_stackheap_outer.o(.text) refers to startup_stm32f10x_md.o(.text) for __user_initial_stackheap
    exit.o(.text) refers to rtexit.o(.ARM.Collect$$rtexit$$00000000) for __rt_exit
    defsig_fpe_outer.o(.text) refers to defsig_fpe_inner.o(.text) for __rt_SIGFPE_inner
    defsig_fpe_outer.o(.text) refers to defsig_exit.o(.text) for __sig_exit
    defsig_fpe_formal.o(.text) refers to rt_raise.o(.text) for __rt_raise
    libinit.o(.ARM.Collect$$libinit$$00000000) refers (Special) to libinit2.o(.ARM.Collect$$libinit$$0000002E) for __rt_lib_init_alloca_1
    libinit.o(.ARM.Collect$$libinit$$00000000) refers (Special) to libinit2.o(.ARM.Collect$$libinit$$0000002C) for __rt_lib_init_argv_1
    libinit.o(.ARM.Collect$$libinit$$00000000) refers (Special) to libinit2.o(.ARM.Collect$$libinit$$0000001B) for __rt_lib_init_atexit_1
    libinit.o(.ARM.Collect$$libinit$$00000000) refers (Special) to libinit2.o(.ARM.Collect$$libinit$$00000021) for __rt_lib_init_clock_1
    libinit.o(.ARM.Collect$$libinit$$00000000) refers (Special) to libinit2.o(.ARM.Collect$$libinit$$00000032) for __rt_lib_init_cpp_1
    libinit.o(.ARM.Collect$$libinit$$00000000) refers (Special) to libinit2.o(.ARM.Collect$$libinit$$00000030) for __rt_lib_init_exceptions_1
    libinit.o(.ARM.Collect$$libinit$$00000000) refers (Special) to libinit2.o(.ARM.Collect$$libinit$$00000002) for __rt_lib_init_fp_1
    libinit.o(.ARM.Collect$$libinit$$00000000) refers (Special) to libinit2.o(.ARM.Collect$$libinit$$0000001F) for __rt_lib_init_fp_trap_1
    libinit.o(.ARM.Collect$$libinit$$00000000) refers (Special) to libinit2.o(.ARM.Collect$$libinit$$00000023) for __rt_lib_init_getenv_1
    libinit.o(.ARM.Collect$$libinit$$00000000) refers (Special) to libinit2.o(.ARM.Collect$$libinit$$0000000A) for __rt_lib_init_heap_1
    libinit.o(.ARM.Collect$$libinit$$00000000) refers (Special) to libinit2.o(.ARM.Collect$$libinit$$00000011) for __rt_lib_init_lc_collate_1
    libinit.o(.ARM.Collect$$libinit$$00000000) refers (Special) to libinit2.o(.ARM.Collect$$libinit$$00000013) for __rt_lib_init_lc_ctype_1
    libinit.o(.ARM.Collect$$libinit$$00000000) refers (Special) to libinit2.o(.ARM.Collect$$libinit$$00000015) for __rt_lib_init_lc_monetary_1
    libinit.o(.ARM.Collect$$libinit$$00000000) refers (Special) to libinit2.o(.ARM.Collect$$libinit$$00000017) for __rt_lib_init_lc_numeric_1
    libinit.o(.ARM.Collect$$libinit$$00000000) refers (Special) to libinit2.o(.ARM.Collect$$libinit$$00000019) for __rt_lib_init_lc_time_1
    libinit.o(.ARM.Collect$$libinit$$00000000) refers (Special) to libinit2.o(.ARM.Collect$$libinit$$00000004) for __rt_lib_init_preinit_1
    libinit.o(.ARM.Collect$$libinit$$00000000) refers (Special) to libinit2.o(.ARM.Collect$$libinit$$0000000E) for __rt_lib_init_rand_1
    libinit.o(.ARM.Collect$$libinit$$00000000) refers (Special) to libinit2.o(.ARM.Collect$$libinit$$00000033) for __rt_lib_init_return
    libinit.o(.ARM.Collect$$libinit$$00000000) refers (Special) to libinit2.o(.ARM.Collect$$libinit$$0000001D) for __rt_lib_init_signal_1
    libinit.o(.ARM.Collect$$libinit$$00000000) refers (Special) to libinit2.o(.ARM.Collect$$libinit$$00000025) for __rt_lib_init_stdio_1
    libinit.o(.ARM.Collect$$libinit$$00000000) refers (Special) to libinit2.o(.ARM.Collect$$libinit$$0000000C) for __rt_lib_init_user_alloc_1
    libspace.o(.text) refers to libspace.o(.bss) for __libspace_start
    rtexit.o(.ARM.Collect$$rtexit$$00000000) refers (Special) to rtexit2.o(.ARM.Collect$$rtexit$$00000004) for __rt_exit_exit
    rtexit.o(.ARM.Collect$$rtexit$$00000000) refers (Special) to rtexit2.o(.ARM.Collect$$rtexit$$00000003) for __rt_exit_ls
    rtexit.o(.ARM.Collect$$rtexit$$00000000) refers (Special) to rtexit2.o(.ARM.Collect$$rtexit$$00000002) for __rt_exit_prels_1
    rtexit.o(.ARM.exidx) refers (Special) to rtexit2.o(.ARM.Collect$$rtexit$$00000004) for __rt_exit_exit
    rtexit.o(.ARM.exidx) refers (Special) to rtexit2.o(.ARM.Collect$$rtexit$$00000003) for __rt_exit_ls
    rtexit.o(.ARM.exidx) refers (Special) to rtexit2.o(.ARM.Collect$$rtexit$$00000002) for __rt_exit_prels_1
    rtexit.o(.ARM.exidx) refers to rtexit.o(.ARM.Collect$$rtexit$$00000000) for .ARM.Collect$$rtexit$$00000000
    rt_raise.o(.text) refers to __raise.o(.text) for __raise
    rt_raise.o(.text) refers to sys_exit.o(.text) for _sys_exit
    defsig_exit.o(.text) refers to sys_exit.o(.text) for _sys_exit
    defsig_fpe_inner.o(.text) refers to defsig_general.o(.text) for __default_signal_display
    libinit2.o(.ARM.Collect$$libinit$$00000010) refers to libinit2.o(.ARM.Collect$$libinit$$0000000F) for .ARM.Collect$$libinit$$0000000F
    libinit2.o(.ARM.Collect$$libinit$$00000012) refers to libinit2.o(.ARM.Collect$$libinit$$0000000F) for .ARM.Collect$$libinit$$0000000F
    libinit2.o(.ARM.Collect$$libinit$$00000014) refers to libinit2.o(.ARM.Collect$$libinit$$0000000F) for .ARM.Collect$$libinit$$0000000F
    libinit2.o(.ARM.Collect$$libinit$$00000016) refers to libinit2.o(.ARM.Collect$$libinit$$0000000F) for .ARM.Collect$$libinit$$0000000F
    libinit2.o(.ARM.Collect$$libinit$$00000018) refers to libinit2.o(.ARM.Collect$$libinit$$0000000F) for .ARM.Collect$$libinit$$0000000F
    libinit2.o(.ARM.Collect$$libinit$$00000026) refers to argv_veneer.o(.emb_text) for __ARM_argv_veneer
    libinit2.o(.ARM.Collect$$libinit$$00000027) refers to argv_veneer.o(.emb_text) for __ARM_argv_veneer
    sys_exit.o(.text) refers (Special) to use_no_semi.o(.text) for __I$use$semihosting
    sys_exit.o(.text) refers (Special) to indicate_semi.o(.text) for __semihosting_library_function
    rtexit2.o(.ARM.Collect$$rtexit$$00000003) refers to libshutdown.o(.ARM.Collect$$libshutdown$$00000000) for __rt_lib_shutdown
    rtexit2.o(.ARM.Collect$$rtexit$$00000004) refers to sys_exit.o(.text) for _sys_exit
    rtexit2.o(.ARM.exidx) refers to rtexit2.o(.ARM.Collect$$rtexit$$00000001) for .ARM.Collect$$rtexit$$00000001
    rtexit2.o(.ARM.exidx) refers to rtexit2.o(.ARM.Collect$$rtexit$$00000003) for .ARM.Collect$$rtexit$$00000003
    rtexit2.o(.ARM.exidx) refers to rtexit2.o(.ARM.Collect$$rtexit$$00000004) for .ARM.Collect$$rtexit$$00000004
    __raise.o(.text) refers to defsig.o(CL$$defsig) for __default_signal_handler
    defsig_general.o(.text) refers to sys_wrch.o(.text) for _ttywrch
    argv_veneer.o(.emb_text) refers to no_argv.o(.text) for __ARM_get_argv
    sys_wrch.o(.text) refers (Special) to use_no_semi.o(.text) for __I$use$semihosting
    sys_wrch.o(.text) refers (Special) to indicate_semi.o(.text) for __semihosting_library_function
    defsig.o(CL$$defsig) refers to defsig_fpe_inner.o(.text) for __rt_SIGFPE_inner
    defsig.o(CL$$defsig) refers to defsig_rtmem_inner.o(.text) for __rt_SIGRTMEM_inner
    _get_argv_nomalloc.o(.text) refers (Special) to hrguard.o(.text) for __heap_region$guard
    _get_argv_nomalloc.o(.text) refers to defsig_rtmem_outer.o(.text) for __rt_SIGRTMEM
    _get_argv_nomalloc.o(.text) refers to sys_command.o(.text) for _sys_command_string
    libshutdown.o(.ARM.Collect$$libshutdown$$00000000) refers (Special) to libshutdown2.o(.ARM.Collect$$libshutdown$$00000002) for __rt_lib_shutdown_cpp_1
    libshutdown.o(.ARM.Collect$$libshutdown$$00000000) refers (Special) to libshutdown2.o(.ARM.Collect$$libshutdown$$00000007) for __rt_lib_shutdown_fp_trap_1
    libshutdown.o(.ARM.Collect$$libshutdown$$00000000) refers (Special) to libshutdown2.o(.ARM.Collect$$libshutdown$$0000000F) for __rt_lib_shutdown_heap_1
    libshutdown.o(.ARM.Collect$$libshutdown$$00000000) refers (Special) to libshutdown2.o(.ARM.Collect$$libshutdown$$00000010) for __rt_lib_shutdown_return
    libshutdown.o(.ARM.Collect$$libshutdown$$00000000) refers (Special) to libshutdown2.o(.ARM.Collect$$libshutdown$$0000000A) for __rt_lib_shutdown_signal_1
    libshutdown.o(.ARM.Collect$$libshutdown$$00000000) refers (Special) to libshutdown2.o(.ARM.Collect$$libshutdown$$00000004) for __rt_lib_shutdown_stdio_1
    libshutdown.o(.ARM.Collect$$libshutdown$$00000000) refers (Special) to libshutdown2.o(.ARM.Collect$$libshutdown$$0000000C) for __rt_lib_shutdown_user_alloc_1
    sys_command.o(.text) refers (Special) to use_no_semi.o(.text) for __I$use$semihosting
    sys_command.o(.text) refers (Special) to indicate_semi.o(.text) for __semihosting_library_function
    defsig_abrt_inner.o(.text) refers to defsig_general.o(.text) for __default_signal_display
    defsig_rtred_inner.o(.text) refers to defsig_general.o(.text) for __default_signal_display
    defsig_rtmem_inner.o(.text) refers to defsig_general.o(.text) for __default_signal_display
    defsig_rtmem_outer.o(.text) refers to defsig_rtmem_inner.o(.text) for __rt_SIGRTMEM_inner
    defsig_rtmem_outer.o(.text) refers to defsig_exit.o(.text) for __sig_exit
    defsig_rtmem_formal.o(.text) refers to rt_raise.o(.text) for __rt_raise
    defsig_stak_inner.o(.text) refers to defsig_general.o(.text) for __default_signal_display
    defsig_pvfn_inner.o(.text) refers to defsig_general.o(.text) for __default_signal_display
    defsig_cppl_inner.o(.text) refers to defsig_general.o(.text) for __default_signal_display
    defsig_segv_inner.o(.text) refers to defsig_general.o(.text) for __default_signal_display
    defsig_other.o(.text) refers to defsig_general.o(.text) for __default_signal_display
    rtclock.o(.ARM.exidx) refers to rtclock.o(i._Z7IIC_SDAb) for i._Z7IIC_SDAb
    rtclock.o(.ARM.exidx) refers to rtclock.o(i._Z7IIC_SCLb) for i._Z7IIC_SCLb
    rtclock.o(.ARM.exidx) refers to rtclock.o(i._Z10IIC_GetSDAv) for i._Z10IIC_GetSDAv


==============================================================================

Removing Unused input sections from the image.

    Removing main.o(.rev16_text), (4 bytes).
    Removing main.o(.revsh_text), (4 bytes).
    Removing main.o(.rrx_text), (6 bytes).
    Removing main.o(.ARM.exidx), (8 bytes).
    Removing main.o(.ARM.exidx), (8 bytes).
    Removing automate.o(.rev16_text), (4 bytes).
    Removing automate.o(.revsh_text), (4 bytes).
    Removing automate.o(.rrx_text), (6 bytes).
    Removing automate.o(i._ZN8AUTOMATE12RTCGetStatusEv), (16 bytes).
    Removing automate.o(.ARM.exidx), (8 bytes).
    Removing automate.o(.ARM.exidx), (8 bytes).
    Removing automate.o(.ARM.exidx), (8 bytes).
    Removing automate.o(.ARM.exidx), (8 bytes).
    Removing automate.o(.ARM.exidx), (8 bytes).
    Removing automate.o(.ARM.exidx), (8 bytes).
    Removing automate.o(.ARM.exidx), (8 bytes).
    Removing automate.o(.ARM.exidx), (8 bytes).
    Removing automate.o(.ARM.exidx), (8 bytes).
    Removing automate.o(.ARM.exidx), (8 bytes).
    Removing automate.o(.ARM.exidx), (8 bytes).
    Removing automate.o(.ARM.exidx), (8 bytes).
    Removing automate.o(.ARM.exidx), (8 bytes).
    Removing automate.o(.ARM.exidx), (8 bytes).
    Removing automate.o(.ARM.exidx), (8 bytes).
    Removing automate.o(.ARM.exidx), (8 bytes).
    Removing automate.o(.ARM.exidx), (8 bytes).
    Removing automate.o(.ARM.exidx), (8 bytes).
    Removing automate.o(.ARM.exidx), (8 bytes).
    Removing automate.o(.ARM.exidx), (8 bytes).
    Removing automate.o(.ARM.exidx), (8 bytes).
    Removing cbus.o(.rev16_text), (4 bytes).
    Removing cbus.o(.revsh_text), (4 bytes).
    Removing cbus.o(.rrx_text), (6 bytes).
    Removing cbus.o(.ARM.exidx), (8 bytes).
    Removing cbus.o(.ARM.exidx), (8 bytes).
    Removing cbus.o(.ARM.exidx), (8 bytes).
    Removing cbus.o(.ARM.exidx), (8 bytes).
    Removing cbus.o(.ARM.exidx), (8 bytes).
    Removing cbus.o(.ARM.exidx), (8 bytes).
    Removing cbus.o(.ARM.exidx), (8 bytes).
    Removing cbus.o(.ARM.exidx), (8 bytes).
    Removing sconi.o(.rev16_text), (4 bytes).
    Removing sconi.o(.revsh_text), (4 bytes).
    Removing sconi.o(.rrx_text), (6 bytes).
    Removing sconi.o(i._ZN5SCONI12InitPositionEPd), (328 bytes).
    Removing sconi.o(i._ZN5SCONI16GetStatusNozzleAEv), (144 bytes).
    Removing sconi.o(i._ZN5SCONI16GetStatusNozzleBEv), (144 bytes).
    Removing sconi.o(.ARM.exidx), (8 bytes).
    Removing sconi.o(.ARM.exidx), (8 bytes).
    Removing sconi.o(.ARM.exidx), (8 bytes).
    Removing sconi.o(.ARM.exidx), (8 bytes).
    Removing sconi.o(.ARM.exidx), (8 bytes).
    Removing sconi.o(.ARM.exidx), (8 bytes).
    Removing sconi.o(.ARM.exidx), (8 bytes).
    Removing sconi.o(.ARM.exidx), (8 bytes).
    Removing sconi.o(.ARM.exidx), (8 bytes).
    Removing sconi.o(.ARM.exidx), (8 bytes).
    Removing sconi.o(.ARM.exidx), (8 bytes).
    Removing sconi.o(.ARM.exidx), (8 bytes).
    Removing sconi.o(.ARM.exidx), (8 bytes).
    Removing sconi.o(.ARM.exidx), (8 bytes).
    Removing sconi.o(.ARM.exidx), (8 bytes).
    Removing sconi.o(.ARM.exidx), (8 bytes).
    Removing sconi.o(.ARM.exidx), (8 bytes).
    Removing sconi.o(.ARM.exidx), (8 bytes).
    Removing sconi.o(.ARM.exidx), (8 bytes).
    Removing sconi.o(.ARM.exidx), (8 bytes).
    Removing sconi.o(.ARM.exidx), (8 bytes).
    Removing sconi.o(.ARM.exidx), (8 bytes).
    Removing sconi.o(.ARM.exidx), (8 bytes).
    Removing sconi.o(.ARM.exidx), (8 bytes).
    Removing sconi.o(.ARM.exidx), (8 bytes).
    Removing sconi.o(.ARM.exidx), (8 bytes).
    Removing sconi.o(.ARM.exidx), (8 bytes).
    Removing sconi.o(.ARM.exidx), (8 bytes).
    Removing sconi.o(.ARM.exidx), (8 bytes).
    Removing sconi.o(.ARM.exidx), (8 bytes).
    Removing sconi.o(.ARM.exidx), (8 bytes).
    Removing sconi.o(.ARM.exidx), (8 bytes).
    Removing sconi.o(.ARM.exidx), (8 bytes).
    Removing sconi.o(.ARM.exidx), (8 bytes).
    Removing sconi.o(.ARM.exidx), (8 bytes).
    Removing sconi.o(.ARM.exidx), (8 bytes).
    Removing sconi.o(.ARM.exidx), (8 bytes).
    Removing tconi.o(.rev16_text), (4 bytes).
    Removing tconi.o(.revsh_text), (4 bytes).
    Removing tconi.o(.rrx_text), (6 bytes).
    Removing tconi.o(.ARM.exidx), (8 bytes).
    Removing tconi.o(.ARM.exidx), (8 bytes).
    Removing tconi.o(.ARM.exidx), (8 bytes).
    Removing tconi.o(.ARM.exidx), (8 bytes).
    Removing tconi.o(.ARM.exidx), (8 bytes).
    Removing tconi.o(.ARM.exidx), (8 bytes).
    Removing tconi.o(.ARM.exidx), (8 bytes).
    Removing tconi.o(.ARM.exidx), (8 bytes).
    Removing tconi.o(.ARM.exidx), (8 bytes).
    Removing tconi.o(.ARM.exidx), (8 bytes).
    Removing tconi.o(.ARM.exidx), (8 bytes).
    Removing tconi.o(.ARM.exidx), (8 bytes).
    Removing tconi.o(.ARM.exidx), (8 bytes).
    Removing tconi.o(.ARM.exidx), (8 bytes).
    Removing tconi.o(.ARM.exidx), (8 bytes).
    Removing tconi.o(.ARM.exidx), (8 bytes).
    Removing tconi.o(.ARM.exidx), (8 bytes).
    Removing tconi.o(.ARM.exidx), (8 bytes).
    Removing tconi.o(.ARM.exidx), (8 bytes).
    Removing tconi.o(.ARM.exidx), (8 bytes).
    Removing tconi.o(.ARM.exidx), (8 bytes).
    Removing tconi.o(.ARM.exidx), (8 bytes).
    Removing tconi.o(.ARM.exidx), (8 bytes).
    Removing ibus.o(.rev16_text), (4 bytes).
    Removing ibus.o(.revsh_text), (4 bytes).
    Removing ibus.o(.rrx_text), (6 bytes).
    Removing ibus.o(.ARM.exidx), (8 bytes).
    Removing ibus.o(.ARM.exidx), (8 bytes).
    Removing ibus.o(.ARM.exidx), (8 bytes).
    Removing ibus.o(.ARM.exidx), (8 bytes).
    Removing ibus.o(.ARM.exidx), (8 bytes).
    Removing ibus.o(.ARM.exidx), (8 bytes).
    Removing ibus.o(.ARM.exidx), (8 bytes).
    Removing ibus.o(.ARM.exidx), (8 bytes).
    Removing fconi.o(.rev16_text), (4 bytes).
    Removing fconi.o(.revsh_text), (4 bytes).
    Removing fconi.o(.rrx_text), (6 bytes).
    Removing fconi.o(i._ZN5FCONI12NumberToCharEhjPh), (108 bytes).
    Removing fconi.o(i._ZN5FCONI15FilePointerSeekEbj), (216 bytes).
    Removing fconi.o(i._ZN5FCONI8FileReadEhPh), (224 bytes).
    Removing fconi.o(.ARM.exidx), (8 bytes).
    Removing fconi.o(.ARM.exidx), (8 bytes).
    Removing fconi.o(.ARM.exidx), (8 bytes).
    Removing fconi.o(.ARM.exidx), (8 bytes).
    Removing fconi.o(.ARM.exidx), (8 bytes).
    Removing fconi.o(.ARM.exidx), (8 bytes).
    Removing fconi.o(.ARM.exidx), (8 bytes).
    Removing fconi.o(.ARM.exidx), (8 bytes).
    Removing fconi.o(.ARM.exidx), (8 bytes).
    Removing fconi.o(.ARM.exidx), (8 bytes).
    Removing fconi.o(.ARM.exidx), (8 bytes).
    Removing fconi.o(.ARM.exidx), (8 bytes).
    Removing fconi.o(.ARM.exidx), (8 bytes).
    Removing fconi.o(.ARM.exidx), (8 bytes).
    Removing fconi.o(.ARM.exidx), (8 bytes).
    Removing fconi.o(.ARM.exidx), (8 bytes).
    Removing fconi.o(.ARM.exidx), (8 bytes).
    Removing fconi.o(.ARM.exidx), (8 bytes).
    Removing fconi.o(.ARM.exidx), (8 bytes).
    Removing fconi.o(.ARM.exidx), (8 bytes).
    Removing fconi.o(.ARM.exidx), (8 bytes).
    Removing fconi.o(.ARM.exidx), (8 bytes).
    Removing cconi.o(.rev16_text), (4 bytes).
    Removing cconi.o(.revsh_text), (4 bytes).
    Removing cconi.o(.rrx_text), (6 bytes).
    Removing cconi.o(i._ZN5CCONI16GetSwitchAStatusEv), (160 bytes).
    Removing cconi.o(i._ZN5CCONI16GetSwitchBStatusEv), (160 bytes).
    Removing cconi.o(i._ZN5CCONI7Chr2FloEPcjjb), (248 bytes).
    Removing cconi.o(i._ZN5CCONI7Flo2ChrEPcdjjb), (268 bytes).
    Removing cconi.o(.ARM.exidx), (8 bytes).
    Removing cconi.o(.ARM.exidx), (8 bytes).
    Removing cconi.o(.ARM.exidx), (8 bytes).
    Removing cconi.o(.ARM.exidx), (8 bytes).
    Removing cconi.o(.ARM.exidx), (8 bytes).
    Removing cconi.o(.ARM.exidx), (8 bytes).
    Removing cconi.o(.ARM.exidx), (8 bytes).
    Removing cconi.o(.ARM.exidx), (8 bytes).
    Removing cconi.o(.ARM.exidx), (8 bytes).
    Removing cconi.o(.ARM.exidx), (8 bytes).
    Removing cconi.o(.ARM.exidx), (8 bytes).
    Removing cconi.o(.ARM.exidx), (8 bytes).
    Removing abus.o(.rev16_text), (4 bytes).
    Removing abus.o(.revsh_text), (4 bytes).
    Removing abus.o(.rrx_text), (6 bytes).
    Removing abus.o(.ARM.exidx), (8 bytes).
    Removing abus.o(.ARM.exidx), (8 bytes).
    Removing abus.o(.ARM.exidx), (8 bytes).
    Removing abus.o(.ARM.exidx), (8 bytes).
    Removing abus.o(.ARM.exidx), (8 bytes).
    Removing abus.o(.ARM.exidx), (8 bytes).
    Removing abus.o(.ARM.exidx), (8 bytes).
    Removing abus.o(.ARM.exidx), (8 bytes).
    Removing auxio.o(.rev16_text), (4 bytes).
    Removing auxio.o(.revsh_text), (4 bytes).
    Removing auxio.o(.rrx_text), (6 bytes).
    Removing auxio.o(.ARM.exidx), (8 bytes).
    Removing auxio.o(.ARM.exidx), (8 bytes).
    Removing auxio.o(.ARM.exidx), (8 bytes).
    Removing auxio.o(.ARM.exidx), (8 bytes).
    Removing auxio.o(.ARM.exidx), (8 bytes).
    Removing status.o(.rev16_text), (4 bytes).
    Removing status.o(.revsh_text), (4 bytes).
    Removing status.o(.rrx_text), (6 bytes).
    Removing shell.o(.rev16_text), (4 bytes).
    Removing shell.o(.revsh_text), (4 bytes).
    Removing shell.o(.rrx_text), (6 bytes).
    Removing shell.o(i._ZN5SHELL6ExpandEPc), (134 bytes).
    Removing shell.o(.ARM.exidx), (8 bytes).
    Removing shell.o(.ARM.exidx), (8 bytes).
    Removing shell.o(.ARM.exidx), (8 bytes).
    Removing shell.o(.ARM.exidx), (8 bytes).
    Removing shell.o(.ARM.exidx), (8 bytes).
    Removing shell.o(.ARM.exidx), (8 bytes).
    Removing shell.o(.ARM.exidx), (8 bytes).
    Removing shell.o(.ARM.exidx), (8 bytes).
    Removing shell.o(.ARM.exidx), (8 bytes).
    Removing shell.o(.ARM.exidx), (8 bytes).
    Removing shell.o(.ARM.exidx), (8 bytes).
    Removing shell.o(.ARM.exidx), (8 bytes).
    Removing shell.o(.ARM.exidx), (8 bytes).
    Removing instruction.o(.rev16_text), (4 bytes).
    Removing instruction.o(.revsh_text), (4 bytes).
    Removing instruction.o(.rrx_text), (6 bytes).
    Removing instruction.o(.ARM.exidx), (8 bytes).
    Removing instruction.o(.ARM.exidx), (8 bytes).
    Removing instruction.o(.ARM.exidx), (8 bytes).
    Removing instruction.o(.ARM.exidx), (8 bytes).
    Removing instruction.o(.ARM.exidx), (8 bytes).
    Removing instruction.o(.ARM.exidx), (8 bytes).
    Removing instruction.o(.ARM.exidx), (8 bytes).
    Removing instruction.o(.ARM.exidx), (8 bytes).
    Removing instruction.o(.ARM.exidx), (8 bytes).
    Removing instruction.o(.ARM.exidx), (8 bytes).
    Removing instruction.o(.ARM.exidx), (8 bytes).
    Removing instruction.o(.ARM.exidx), (8 bytes).
    Removing instruction.o(.ARM.exidx), (8 bytes).
    Removing instruction.o(.ARM.exidx), (8 bytes).
    Removing instruction.o(.ARM.exidx), (8 bytes).
    Removing instruction.o(.ARM.exidx), (8 bytes).
    Removing instruction.o(.ARM.exidx), (8 bytes).
    Removing instruction.o(.ARM.exidx), (8 bytes).
    Removing instruction.o(.ARM.exidx), (8 bytes).
    Removing instruction.o(.ARM.exidx), (8 bytes).
    Removing instruction.o(.ARM.exidx), (8 bytes).
    Removing instruction.o(.ARM.exidx), (8 bytes).
    Removing instruction.o(.ARM.exidx), (8 bytes).
    Removing instruction.o(.ARM.exidx), (8 bytes).
    Removing instruction.o(.ARM.exidx), (8 bytes).
    Removing instruction.o(.ARM.exidx), (8 bytes).
    Removing instruction.o(.ARM.exidx), (8 bytes).
    Removing instruction.o(.ARM.exidx), (8 bytes).
    Removing instruction.o(.ARM.exidx), (8 bytes).
    Removing instruction.o(.ARM.exidx), (8 bytes).
    Removing instruction.o(.ARM.exidx), (8 bytes).
    Removing instruction.o(.ARM.exidx), (8 bytes).
    Removing instruction.o(.ARM.exidx), (8 bytes).
    Removing instruction.o(.ARM.exidx), (8 bytes).
    Removing interpreter.o(.rev16_text), (4 bytes).
    Removing interpreter.o(.revsh_text), (4 bytes).
    Removing interpreter.o(.rrx_text), (6 bytes).
    Removing interpreter.o(i._ZN11INTERPRETER9AbsDoubleEd), (36 bytes).
    Removing interpreter.o(.ARM.exidx), (8 bytes).
    Removing interpreter.o(.ARM.exidx), (8 bytes).
    Removing interpreter.o(.ARM.exidx), (8 bytes).
    Removing interpreter.o(.ARM.exidx), (8 bytes).
    Removing interpreter.o(.ARM.exidx), (8 bytes).
    Removing interpreter.o(.ARM.exidx), (8 bytes).
    Removing interpreter.o(.ARM.exidx), (8 bytes).
    Removing interpreter.o(.ARM.exidx), (8 bytes).
    Removing interpreter.o(.ARM.exidx), (8 bytes).
    Removing interpreter.o(.ARM.exidx), (8 bytes).
    Removing interpreter.o(.ARM.exidx), (8 bytes).
    Removing interpreter.o(.ARM.exidx), (8 bytes).
    Removing interpreter.o(.ARM.exidx), (8 bytes).
    Removing interpreter.o(.ARM.exidx), (8 bytes).
    Removing interpreter.o(.ARM.exidx), (8 bytes).
    Removing interpreter.o(.ARM.exidx), (8 bytes).
    Removing interpreter.o(.ARM.exidx), (8 bytes).
    Removing interpreter.o(.ARM.exidx), (8 bytes).
    Removing interpreter.o(.ARM.exidx), (8 bytes).
    Removing rtclock.o(.rev16_text), (4 bytes).
    Removing rtclock.o(.revsh_text), (4 bytes).
    Removing rtclock.o(.rrx_text), (6 bytes).
    Removing rtclock.o(i._ZN7RTCLOCK7SetTimeEv), (2 bytes).
    Removing rtclock.o(.ARM.exidx), (8 bytes).
    Removing rtclock.o(.ARM.exidx), (8 bytes).
    Removing rtclock.o(.ARM.exidx), (8 bytes).
    Removing rtclock.o(.ARM.exidx), (8 bytes).
    Removing rtclock.o(.ARM.exidx), (8 bytes).
    Removing rtclock.o(.ARM.exidx), (8 bytes).
    Removing rtclock.o(.ARM.exidx), (8 bytes).
    Removing rtclock.o(.ARM.exidx), (8 bytes).
    Removing rtclock.o(.ARM.exidx), (8 bytes).
    Removing rtclock.o(.ARM.exidx), (8 bytes).
    Removing rtclock.o(.ARM.exidx), (8 bytes).
    Removing rtclock.o(.ARM.exidx), (8 bytes).
    Removing rtclock.o(.ARM.exidx), (8 bytes).
    Removing rtclock.o(.ARM.exidx), (8 bytes).
    Removing rtclock.o(.ARM.exidx), (8 bytes).
    Removing rtclock.o(.ARM.exidx), (8 bytes).
    Removing rtclock.o(.ARM.exidx), (8 bytes).
    Removing rtclock.o(.ARM.exidx), (8 bytes).
    Removing system_stm32f10x.o(.rev16_text), (4 bytes).
    Removing system_stm32f10x.o(.revsh_text), (4 bytes).
    Removing system_stm32f10x.o(.rrx_text), (6 bytes).
    Removing system_stm32f10x.o(i.SystemCoreClockUpdate), (164 bytes).
    Removing system_stm32f10x.o(.data), (20 bytes).
    Removing rtclock.o(.ARM.exidx), (8 bytes).
    Removing rtclock.o(.ARM.exidx), (8 bytes).
    Removing rtclock.o(.ARM.exidx), (8 bytes).

297 unused section(s) (total 4460 bytes) removed from the image.

==============================================================================

Image Symbol Table

    Local Symbols

    Symbol Name                              Value     Ov Type        Size  Object(Section)

    ../clib/angel/boardlib.s                 0x00000000   Number         0  boardshut.o ABSOLUTE
    ../clib/angel/boardlib.s                 0x00000000   Number         0  boardinit3.o ABSOLUTE
    ../clib/angel/boardlib.s                 0x00000000   Number         0  boardinit2.o ABSOLUTE
    ../clib/angel/boardlib.s                 0x00000000   Number         0  boardinit1.o ABSOLUTE
    ../clib/angel/dclz77c.s                  0x00000000   Number         0  __dclz77c.o ABSOLUTE
    ../clib/angel/handlers.s                 0x00000000   Number         0  __scatter_zi.o ABSOLUTE
    ../clib/angel/kernel.s                   0x00000000   Number         0  __rtentry2.o ABSOLUTE
    ../clib/angel/kernel.s                   0x00000000   Number         0  __rtentry.o ABSOLUTE
    ../clib/angel/kernel.s                   0x00000000   Number         0  rtexit.o ABSOLUTE
    ../clib/angel/kernel.s                   0x00000000   Number         0  rtexit2.o ABSOLUTE
    ../clib/angel/kernel.s                   0x00000000   Number         0  __rtentry4.o ABSOLUTE
    ../clib/angel/rt.s                       0x00000000   Number         0  aeabi_ldiv0.o ABSOLUTE
    ../clib/angel/rt.s                       0x00000000   Number         0  aeabi_ldiv0_sigfpe.o ABSOLUTE
    ../clib/angel/rt.s                       0x00000000   Number         0  rt_div0.o ABSOLUTE
    ../clib/angel/rt.s                       0x00000000   Number         0  rt_raise.o ABSOLUTE
    ../clib/angel/scatter.s                  0x00000000   Number         0  __scatter.o ABSOLUTE
    ../clib/angel/startup.s                  0x00000000   Number         0  __main.o ABSOLUTE
    ../clib/angel/sys.s                      0x00000000   Number         0  libspace.o ABSOLUTE
    ../clib/angel/sys.s                      0x00000000   Number         0  sys_stackheap_outer.o ABSOLUTE
    ../clib/angel/sys.s                      0x00000000   Number         0  use_no_semi.o ABSOLUTE
    ../clib/angel/sys.s                      0x00000000   Number         0  indicate_semi.o ABSOLUTE
    ../clib/angel/sysapp.c                   0x00000000   Number         0  sys_command.o ABSOLUTE
    ../clib/angel/sysapp.c                   0x00000000   Number         0  sys_wrch.o ABSOLUTE
    ../clib/angel/sysapp.c                   0x00000000   Number         0  sys_exit.o ABSOLUTE
    ../clib/armsys.c                         0x00000000   Number         0  argv_veneer.o ABSOLUTE
    ../clib/armsys.c                         0x00000000   Number         0  argv_veneer.o ABSOLUTE
    ../clib/armsys.c                         0x00000000   Number         0  no_argv.o ABSOLUTE
    ../clib/armsys.c                         0x00000000   Number         0  _get_argv_nomalloc.o ABSOLUTE
    ../clib/heapalloc.c                      0x00000000   Number         0  hrguard.o ABSOLUTE
    ../clib/heapaux.c                        0x00000000   Number         0  heapauxi.o ABSOLUTE
    ../clib/libinit.s                        0x00000000   Number         0  libinit2.o ABSOLUTE
    ../clib/libinit.s                        0x00000000   Number         0  libinit.o ABSOLUTE
    ../clib/libinit.s                        0x00000000   Number         0  libshutdown2.o ABSOLUTE
    ../clib/libinit.s                        0x00000000   Number         0  libshutdown.o ABSOLUTE
    ../clib/longlong.s                       0x00000000   Number         0  llsdiv.o ABSOLUTE
    ../clib/longlong.s                       0x00000000   Number         0  lludivv7m.o ABSOLUTE
    ../clib/memcpset.s                       0x00000000   Number         0  rt_memcpy_w.o ABSOLUTE
    ../clib/memcpset.s                       0x00000000   Number         0  rt_memclr_w.o ABSOLUTE
    ../clib/signal.c                         0x00000000   Number         0  defsig_rtred_inner.o ABSOLUTE
    ../clib/signal.c                         0x00000000   Number         0  defsig_rtmem_formal.o ABSOLUTE
    ../clib/signal.c                         0x00000000   Number         0  defsig_fpe_formal.o ABSOLUTE
    ../clib/signal.c                         0x00000000   Number         0  __raise.o ABSOLUTE
    ../clib/signal.c                         0x00000000   Number         0  defsig_rtmem_outer.o ABSOLUTE
    ../clib/signal.c                         0x00000000   Number         0  defsig_rtmem_inner.o ABSOLUTE
    ../clib/signal.c                         0x00000000   Number         0  defsig_abrt_inner.o ABSOLUTE
    ../clib/signal.c                         0x00000000   Number         0  defsig_exit.o ABSOLUTE
    ../clib/signal.c                         0x00000000   Number         0  defsig_fpe_inner.o ABSOLUTE
    ../clib/signal.c                         0x00000000   Number         0  defsig_other.o ABSOLUTE
    ../clib/signal.c                         0x00000000   Number         0  defsig_segv_inner.o ABSOLUTE
    ../clib/signal.c                         0x00000000   Number         0  defsig_cppl_inner.o ABSOLUTE
    ../clib/signal.c                         0x00000000   Number         0  defsig_pvfn_inner.o ABSOLUTE
    ../clib/signal.c                         0x00000000   Number         0  defsig_stak_inner.o ABSOLUTE
    ../clib/signal.c                         0x00000000   Number         0  defsig_fpe_outer.o ABSOLUTE
    ../clib/signal.c                         0x00000000   Number         0  defsig_general.o ABSOLUTE
    ../clib/signal.s                         0x00000000   Number         0  defsig.o ABSOLUTE
    ../clib/stdlib.c                         0x00000000   Number         0  exit.o ABSOLUTE
    ../fplib/d2f.s                           0x00000000   Number         0  d2f.o ABSOLUTE
    ../fplib/daddsub.s                       0x00000000   Number         0  daddsub_clz.o ABSOLUTE
    ../fplib/dcmpi.s                         0x00000000   Number         0  dcmpi.o ABSOLUTE
    ../fplib/ddiv.s                          0x00000000   Number         0  ddiv.o ABSOLUTE
    ../fplib/dfixll.s                        0x00000000   Number         0  dfixll.o ABSOLUTE
    ../fplib/dfixu.s                         0x00000000   Number         0  dfixu.o ABSOLUTE
    ../fplib/dflt.s                          0x00000000   Number         0  dflt_clz.o ABSOLUTE
    ../fplib/dfltll.s                        0x00000000   Number         0  dfltll_clz.o ABSOLUTE
    ../fplib/dleqf.s                         0x00000000   Number         0  dleqf.o ABSOLUTE
    ../fplib/dmul.s                          0x00000000   Number         0  dmul.o ABSOLUTE
    ../fplib/dnaninf.s                       0x00000000   Number         0  dnaninf.o ABSOLUTE
    ../fplib/dretinf.s                       0x00000000   Number         0  dretinf.o ABSOLUTE
    ../fplib/drleqf.s                        0x00000000   Number         0  drleqf.o ABSOLUTE
    ../fplib/f2d.s                           0x00000000   Number         0  f2d.o ABSOLUTE
    ../fplib/fcmpi.s                         0x00000000   Number         0  fcmpi.o ABSOLUTE
    ../fplib/fdiv.s                          0x00000000   Number         0  fdiv.o ABSOLUTE
    ../fplib/fleqf.s                         0x00000000   Number         0  fleqf.o ABSOLUTE
    ../fplib/fnaninf.s                       0x00000000   Number         0  fnaninf.o ABSOLUTE
    ../fplib/fpinit.s                        0x00000000   Number         0  fpinit.o ABSOLUTE
    ../fplib/fretinf.s                       0x00000000   Number         0  fretinf.o ABSOLUTE
    ../fplib/frleqf.s                        0x00000000   Number         0  frleqf.o ABSOLUTE
    ../fplib/usenofp.s                       0x00000000   Number         0  usenofp.o ABSOLUTE
    ABUS.cpp                                 0x00000000   Number         0  abus.o ABSOLUTE
    ABUS.cpp                                 0x00000000   Number         0  abus.o ABSOLUTE
    Automate.cpp                             0x00000000   Number         0  automate.o ABSOLUTE
    Automate.cpp                             0x00000000   Number         0  automate.o ABSOLUTE
    AuxIO.cpp                                0x00000000   Number         0  auxio.o ABSOLUTE
    AuxIO.cpp                                0x00000000   Number         0  auxio.o ABSOLUTE
    CBUS.cpp                                 0x00000000   Number         0  cbus.o ABSOLUTE
    CBUS.cpp                                 0x00000000   Number         0  cbus.o ABSOLUTE
    CCONI.cpp                                0x00000000   Number         0  cconi.o ABSOLUTE
    CCONI.cpp                                0x00000000   Number         0  cconi.o ABSOLUTE
    FCONI.cpp                                0x00000000   Number         0  fconi.o ABSOLUTE
    FCONI.cpp                                0x00000000   Number         0  fconi.o ABSOLUTE
    IBUS.cpp                                 0x00000000   Number         0  ibus.o ABSOLUTE
    IBUS.cpp                                 0x00000000   Number         0  ibus.o ABSOLUTE
    Instruction.cpp                          0x00000000   Number         0  instruction.o ABSOLUTE
    Instruction.cpp                          0x00000000   Number         0  instruction.o ABSOLUTE
    Interpreter.cpp                          0x00000000   Number         0  interpreter.o ABSOLUTE
    Interpreter.cpp                          0x00000000   Number         0  interpreter.o ABSOLUTE
    Main.cpp                                 0x00000000   Number         0  main.o ABSOLUTE
    Main.cpp                                 0x00000000   Number         0  main.o ABSOLUTE
    RTClock.cpp                              0x00000000   Number         0  rtclock.o ABSOLUTE
    RTClock.cpp                              0x00000000   Number         0  rtclock.o ABSOLUTE
    RTE\Device\STM32F103C8\startup_stm32f10x_md.s 0x00000000   Number         0  startup_stm32f10x_md.o ABSOLUTE
    RTE\Device\STM32F103C8\system_stm32f10x.c 0x00000000   Number         0  system_stm32f10x.o ABSOLUTE
    RTE\\Device\\STM32F103C8\\system_stm32f10x.c 0x00000000   Number         0  system_stm32f10x.o ABSOLUTE
    SCONI.cpp                                0x00000000   Number         0  sconi.o ABSOLUTE
    SCONI.cpp                                0x00000000   Number         0  sconi.o ABSOLUTE
    Shell.cpp                                0x00000000   Number         0  shell.o ABSOLUTE
    Shell.cpp                                0x00000000   Number         0  shell.o ABSOLUTE
    Status.cpp                               0x00000000   Number         0  status.o ABSOLUTE
    Status.cpp                               0x00000000   Number         0  status.o ABSOLUTE
    TCONI.cpp                                0x00000000   Number         0  tconi.o ABSOLUTE
    TCONI.cpp                                0x00000000   Number         0  tconi.o ABSOLUTE
    dc.s                                     0x00000000   Number         0  dc.o ABSOLUTE
    RESET                                    0x08000000   Section      236  startup_stm32f10x_md.o(RESET)
    !!!main                                  0x080000ec   Section        8  __main.o(!!!main)
    !!!scatter                               0x080000f4   Section       52  __scatter.o(!!!scatter)
    !!dclz77c                                0x08000128   Section      100  __dclz77c.o(!!dclz77c)
    !!handler_zi                             0x0800018c   Section       28  __scatter_zi.o(!!handler_zi)
    .ARM.Collect$$libinit$$00000000          0x080001a8   Section        2  libinit.o(.ARM.Collect$$libinit$$00000000)
    .ARM.Collect$$libinit$$00000002          0x080001aa   Section        0  libinit2.o(.ARM.Collect$$libinit$$00000002)
    .ARM.Collect$$libinit$$00000004          0x080001aa   Section        0  libinit2.o(.ARM.Collect$$libinit$$00000004)
    .ARM.Collect$$libinit$$0000000A          0x080001aa   Section        0  libinit2.o(.ARM.Collect$$libinit$$0000000A)
    .ARM.Collect$$libinit$$0000000C          0x080001aa   Section        0  libinit2.o(.ARM.Collect$$libinit$$0000000C)
    .ARM.Collect$$libinit$$0000000E          0x080001aa   Section        0  libinit2.o(.ARM.Collect$$libinit$$0000000E)
    .ARM.Collect$$libinit$$00000011          0x080001aa   Section        0  libinit2.o(.ARM.Collect$$libinit$$00000011)
    .ARM.Collect$$libinit$$00000013          0x080001aa   Section        0  libinit2.o(.ARM.Collect$$libinit$$00000013)
    .ARM.Collect$$libinit$$00000015          0x080001aa   Section        0  libinit2.o(.ARM.Collect$$libinit$$00000015)
    .ARM.Collect$$libinit$$00000017          0x080001aa   Section        0  libinit2.o(.ARM.Collect$$libinit$$00000017)
    .ARM.Collect$$libinit$$00000019          0x080001aa   Section        0  libinit2.o(.ARM.Collect$$libinit$$00000019)
    .ARM.Collect$$libinit$$0000001B          0x080001aa   Section        0  libinit2.o(.ARM.Collect$$libinit$$0000001B)
    .ARM.Collect$$libinit$$0000001D          0x080001aa   Section        0  libinit2.o(.ARM.Collect$$libinit$$0000001D)
    .ARM.Collect$$libinit$$0000001F          0x080001aa   Section        0  libinit2.o(.ARM.Collect$$libinit$$0000001F)
    .ARM.Collect$$libinit$$00000021          0x080001aa   Section        0  libinit2.o(.ARM.Collect$$libinit$$00000021)
    .ARM.Collect$$libinit$$00000023          0x080001aa   Section        0  libinit2.o(.ARM.Collect$$libinit$$00000023)
    .ARM.Collect$$libinit$$00000025          0x080001aa   Section        0  libinit2.o(.ARM.Collect$$libinit$$00000025)
    .ARM.Collect$$libinit$$0000002C          0x080001aa   Section        0  libinit2.o(.ARM.Collect$$libinit$$0000002C)
    .ARM.Collect$$libinit$$0000002E          0x080001aa   Section        0  libinit2.o(.ARM.Collect$$libinit$$0000002E)
    .ARM.Collect$$libinit$$00000030          0x080001aa   Section        0  libinit2.o(.ARM.Collect$$libinit$$00000030)
    .ARM.Collect$$libinit$$00000032          0x080001aa   Section        0  libinit2.o(.ARM.Collect$$libinit$$00000032)
    .ARM.Collect$$libinit$$00000033          0x080001aa   Section        2  libinit2.o(.ARM.Collect$$libinit$$00000033)
    .ARM.Collect$$libshutdown$$00000000      0x080001ac   Section        2  libshutdown.o(.ARM.Collect$$libshutdown$$00000000)
    .ARM.Collect$$libshutdown$$00000002      0x080001ae   Section        0  libshutdown2.o(.ARM.Collect$$libshutdown$$00000002)
    .ARM.Collect$$libshutdown$$00000004      0x080001ae   Section        0  libshutdown2.o(.ARM.Collect$$libshutdown$$00000004)
    .ARM.Collect$$libshutdown$$00000007      0x080001ae   Section        0  libshutdown2.o(.ARM.Collect$$libshutdown$$00000007)
    .ARM.Collect$$libshutdown$$0000000A      0x080001ae   Section        0  libshutdown2.o(.ARM.Collect$$libshutdown$$0000000A)
    .ARM.Collect$$libshutdown$$0000000C      0x080001ae   Section        0  libshutdown2.o(.ARM.Collect$$libshutdown$$0000000C)
    .ARM.Collect$$libshutdown$$0000000F      0x080001ae   Section        0  libshutdown2.o(.ARM.Collect$$libshutdown$$0000000F)
    .ARM.Collect$$libshutdown$$00000010      0x080001ae   Section        2  libshutdown2.o(.ARM.Collect$$libshutdown$$00000010)
    .ARM.Collect$$rtentry$$00000000          0x080001b0   Section        0  __rtentry.o(.ARM.Collect$$rtentry$$00000000)
    .ARM.Collect$$rtentry$$00000002          0x080001b0   Section        0  __rtentry2.o(.ARM.Collect$$rtentry$$00000002)
    .ARM.Collect$$rtentry$$00000004          0x080001b0   Section        6  __rtentry4.o(.ARM.Collect$$rtentry$$00000004)
    .ARM.Collect$$rtentry$$00000009          0x080001b6   Section        0  __rtentry2.o(.ARM.Collect$$rtentry$$00000009)
    .ARM.Collect$$rtentry$$0000000A          0x080001b6   Section        4  __rtentry2.o(.ARM.Collect$$rtentry$$0000000A)
    .ARM.Collect$$rtentry$$0000000C          0x080001ba   Section        0  __rtentry2.o(.ARM.Collect$$rtentry$$0000000C)
    .ARM.Collect$$rtentry$$0000000D          0x080001ba   Section        8  __rtentry2.o(.ARM.Collect$$rtentry$$0000000D)
    .ARM.Collect$$rtexit$$00000000           0x080001c2   Section        2  rtexit.o(.ARM.Collect$$rtexit$$00000000)
    .ARM.Collect$$rtexit$$00000002           0x080001c4   Section        0  rtexit2.o(.ARM.Collect$$rtexit$$00000002)
    .ARM.Collect$$rtexit$$00000003           0x080001c4   Section        4  rtexit2.o(.ARM.Collect$$rtexit$$00000003)
    .ARM.Collect$$rtexit$$00000004           0x080001c8   Section        6  rtexit2.o(.ARM.Collect$$rtexit$$00000004)
    .text                                    0x080001d0   Section       64  startup_stm32f10x_md.o(.text)
    .text                                    0x08000210   Section      238  lludivv7m.o(.text)
    .text                                    0x080002fe   Section       72  llsdiv.o(.text)
    .text                                    0x08000346   Section      100  rt_memcpy_w.o(.text)
    .text                                    0x080003aa   Section       78  rt_memclr_w.o(.text)
    .text                                    0x080003f8   Section        0  heapauxi.o(.text)
    .text                                    0x080003fe   Section       74  sys_stackheap_outer.o(.text)
    .text                                    0x08000448   Section        0  exit.o(.text)
    .text                                    0x0800045c   Section        8  libspace.o(.text)
    .text                                    0x08000464   Section        0  sys_exit.o(.text)
    .text                                    0x08000470   Section        2  use_no_semi.o(.text)
    .text                                    0x08000472   Section        0  indicate_semi.o(.text)
    i.SetSysClock                            0x08000472   Section        0  system_stm32f10x.o(i.SetSysClock)
    SetSysClock                              0x08000473   Thumb Code     8  system_stm32f10x.o(i.SetSysClock)
    i.SetSysClockTo72                        0x0800047c   Section        0  system_stm32f10x.o(i.SetSysClockTo72)
    SetSysClockTo72                          0x0800047d   Thumb Code   214  system_stm32f10x.o(i.SetSysClockTo72)
    i.SystemInit                             0x0800055c   Section        0  system_stm32f10x.o(i.SystemInit)
    i.TIM3_IRQHandler                        0x080005bc   Section        0  automate.o(i.TIM3_IRQHandler)
    i.USART1_IRQHandler                      0x08000614   Section        0  abus.o(i.USART1_IRQHandler)
    i.USART2_IRQHandler                      0x080006b0   Section        0  ibus.o(i.USART2_IRQHandler)
    i.USART3_IRQHandler                      0x08000748   Section        0  cbus.o(i.USART3_IRQHandler)
    i._Z10IIC_GetSDAv                        0x080007dc   Section        0  rtclock.o(i._Z10IIC_GetSDAv)
    i._Z7IIC_SCLb                            0x080007f4   Section        0  rtclock.o(i._Z7IIC_SCLb)
    i._Z7IIC_SDAb                            0x0800081c   Section        0  rtclock.o(i._Z7IIC_SDAb)
    i._Z8Delay_Msj                           0x08000844   Section        0  main.o(i._Z8Delay_Msj)
    i._ZN11INSTRUCTION10DisableIDPEv         0x08000878   Section        0  instruction.o(i._ZN11INSTRUCTION10DisableIDPEv)
    i._ZN11INSTRUCTION10SetColExtAEj         0x08000988   Section        0  instruction.o(i._ZN11INSTRUCTION10SetColExtAEj)
    i._ZN11INSTRUCTION10SetColExtBEj         0x08000b1c   Section        0  instruction.o(i._ZN11INSTRUCTION10SetColExtBEj)
    i._ZN11INSTRUCTION10SetTemExtAEj         0x08000cb0   Section        0  instruction.o(i._ZN11INSTRUCTION10SetTemExtAEj)
    i._ZN11INSTRUCTION10SetTemExtBEj         0x08000f04   Section        0  instruction.o(i._ZN11INSTRUCTION10SetTemExtBEj)
    i._ZN11INSTRUCTION11RefreshDictEv        0x08001158   Section        0  instruction.o(i._ZN11INSTRUCTION11RefreshDictEv)
    i._ZN11INSTRUCTION11StorageInfoEv        0x08001198   Section        0  instruction.o(i._ZN11INSTRUCTION11StorageInfoEv)
    i._ZN11INSTRUCTION11WarningInfoEv        0x080013c4   Section        0  instruction.o(i._ZN11INSTRUCTION11WarningInfoEv)
    i._ZN11INSTRUCTION13EnableNozzleAEv      0x08001620   Section        0  instruction.o(i._ZN11INSTRUCTION13EnableNozzleAEv)
    i._ZN11INSTRUCTION13EnableNozzleBEv      0x08001908   Section        0  instruction.o(i._ZN11INSTRUCTION13EnableNozzleBEv)
    i._ZN11INSTRUCTION13EnableStepperEv      0x08001bf0   Section        0  instruction.o(i._ZN11INSTRUCTION13EnableStepperEv)
    i._ZN11INSTRUCTION14DisableNozzleAEv     0x08001d64   Section        0  instruction.o(i._ZN11INSTRUCTION14DisableNozzleAEv)
    i._ZN11INSTRUCTION14DisableNozzleBEv     0x0800204c   Section        0  instruction.o(i._ZN11INSTRUCTION14DisableNozzleBEv)
    i._ZN11INSTRUCTION14ReloadFilamentEv     0x08002334   Section        0  instruction.o(i._ZN11INSTRUCTION14ReloadFilamentEv)
    i._ZN11INSTRUCTION15EnableMainLightEv    0x080023b8   Section        0  instruction.o(i._ZN11INSTRUCTION15EnableMainLightEv)
    i._ZN11INSTRUCTION16DisableMainLightEv   0x080024a0   Section        0  instruction.o(i._ZN11INSTRUCTION16DisableMainLightEv)
    i._ZN11INSTRUCTION17ManufacturingInfoEv  0x08002588   Section        0  instruction.o(i._ZN11INSTRUCTION17ManufacturingInfoEv)
    i._ZN11INSTRUCTION17StopManufacturingEv  0x080026c0   Section        0  instruction.o(i._ZN11INSTRUCTION17StopManufacturingEv)
    i._ZN11INSTRUCTION18PauseManufacturingEv 0x08002744   Section        0  instruction.o(i._ZN11INSTRUCTION18PauseManufacturingEv)
    i._ZN11INSTRUCTION18StartManufacturingEv 0x080027c8   Section        0  instruction.o(i._ZN11INSTRUCTION18StartManufacturingEv)
    i._ZN11INSTRUCTION19ManufacturingReportEv 0x080029a8   Section        0  instruction.o(i._ZN11INSTRUCTION19ManufacturingReportEv)
    i._ZN11INSTRUCTION19ResumeManufacturingEv 0x08002aac   Section        0  instruction.o(i._ZN11INSTRUCTION19ResumeManufacturingEv)
    i._ZN11INSTRUCTION20EnableAuxiliaryLightEv 0x08002b90   Section        0  instruction.o(i._ZN11INSTRUCTION20EnableAuxiliaryLightEv)
    i._ZN11INSTRUCTION21DisableAuxiliaryLightEv 0x08002c78   Section        0  instruction.o(i._ZN11INSTRUCTION21DisableAuxiliaryLightEv)
    i._ZN11INSTRUCTION7Num2ChrEPcj           0x08002d60   Section        0  instruction.o(i._ZN11INSTRUCTION7Num2ChrEPcj)
    i._ZN11INSTRUCTION8AutoHomeEv            0x08002dec   Section        0  instruction.o(i._ZN11INSTRUCTION8AutoHomeEv)
    i._ZN11INSTRUCTION8NotFoundEv            0x08003278   Section        0  instruction.o(i._ZN11INSTRUCTION8NotFoundEv)
    i._ZN11INSTRUCTION8PrintNumEj            0x080032a8   Section        0  instruction.o(i._ZN11INSTRUCTION8PrintNumEj)
    i._ZN11INSTRUCTION8SetTemBPEj            0x080032d4   Section        0  instruction.o(i._ZN11INSTRUCTION8SetTemBPEj)
    i._ZN11INSTRUCTION9EnableIDPEv           0x08003524   Section        0  instruction.o(i._ZN11INSTRUCTION9EnableIDPEv)
    i._ZN11INSTRUCTION9ErrorInfoEv           0x08003634   Section        0  instruction.o(i._ZN11INSTRUCTION9ErrorInfoEv)
    i._ZN11INSTRUCTION9MoveAxisXEj           0x08003af8   Section        0  instruction.o(i._ZN11INSTRUCTION9MoveAxisXEj)
    i._ZN11INSTRUCTION9MoveAxisYEj           0x08003dec   Section        0  instruction.o(i._ZN11INSTRUCTION9MoveAxisYEj)
    i._ZN11INSTRUCTION9MoveAxisZEj           0x080040e0   Section        0  instruction.o(i._ZN11INSTRUCTION9MoveAxisZEj)
    i._ZN11INTERPRETER10AbsDecimalEi         0x080043d4   Section        0  interpreter.o(i._ZN11INTERPRETER10AbsDecimalEi)
    i._ZN11INTERPRETER11StatusCheckEv        0x080043e4   Section        0  interpreter.o(i._ZN11INTERPRETER11StatusCheckEv)
    i._ZN11INTERPRETER12CharToDoubleEPh      0x08004494   Section        0  interpreter.o(i._ZN11INTERPRETER12CharToDoubleEPh)
    i._ZN11INTERPRETER12LocalAnalyseEv       0x080045c4   Section        0  interpreter.o(i._ZN11INTERPRETER12LocalAnalyseEv)
    i._ZN11INTERPRETER13CharToDecimalEPh     0x08006224   Section        0  interpreter.o(i._ZN11INTERPRETER13CharToDecimalEPh)
    i._ZN11INTERPRETER14GetInstructionEv     0x080062a4   Section        0  interpreter.o(i._ZN11INTERPRETER14GetInstructionEv)
    i._ZN11INTERPRETER4InitEv                0x08006740   Section        0  interpreter.o(i._ZN11INTERPRETER4InitEv)
    i._ZN11INTERPRETER4StopEv                0x080068c0   Section        0  interpreter.o(i._ZN11INTERPRETER4StopEv)
    i._ZN11INTERPRETER4TickEv                0x080068d6   Section        0  interpreter.o(i._ZN11INTERPRETER4TickEv)
    i._ZN11INTERPRETER5PauseEv               0x0800691c   Section        0  interpreter.o(i._ZN11INTERPRETER5PauseEv)
    i._ZN11INTERPRETER5ResetEv               0x08006934   Section        0  interpreter.o(i._ZN11INTERPRETER5ResetEv)
    i._ZN11INTERPRETER5RoundEv               0x08006ab4   Section        0  interpreter.o(i._ZN11INTERPRETER5RoundEv)
    i._ZN11INTERPRETER5StartEv               0x08007318   Section        0  interpreter.o(i._ZN11INTERPRETER5StartEv)
    i._ZN11INTERPRETER6ReLoadEv              0x0800734a   Section        0  interpreter.o(i._ZN11INTERPRETER6ReLoadEv)
    i._ZN11INTERPRETER6ResumeEv              0x08007360   Section        0  interpreter.o(i._ZN11INTERPRETER6ResumeEv)
    i._ZN11INTERPRETER7ProcessEv             0x0800738c   Section        0  interpreter.o(i._ZN11INTERPRETER7ProcessEv)
    i._ZN11INTERPRETER8PreCheckEv            0x08007f30   Section        0  interpreter.o(i._ZN11INTERPRETER8PreCheckEv)
    i._ZN11INTERPRETER9AxisRoundERdd         0x08008030   Section        0  interpreter.o(i._ZN11INTERPRETER9AxisRoundERdd)
    i._ZN4ABUS14WaitForReceiveEj             0x08008070   Section        0  abus.o(i._ZN4ABUS14WaitForReceiveEj)
    i._ZN4ABUS17TestIfVerifyErrorEv          0x080080c8   Section        0  abus.o(i._ZN4ABUS17TestIfVerifyErrorEv)
    i._ZN4ABUS2TxEh                          0x080080d8   Section        0  abus.o(i._ZN4ABUS2TxEh)
    i._ZN4ABUS4InitEv                        0x080080f4   Section        0  abus.o(i._ZN4ABUS4InitEv)
    i._ZN4ABUS5PrintEPc                      0x080081bc   Section        0  abus.o(i._ZN4ABUS5PrintEPc)
    i._ZN4ABUS8TransmitEcPcj                 0x080081f6   Section        0  abus.o(i._ZN4ABUS8TransmitEcPcj)
    i._ZN4ABUS9TestReplyEc                   0x08008238   Section        0  abus.o(i._ZN4ABUS9TestReplyEc)
    i._ZN4CBUS14WaitForReceiveEj             0x08008278   Section        0  cbus.o(i._ZN4CBUS14WaitForReceiveEj)
    i._ZN4CBUS17TestIfVerifyErrorEv          0x080082d0   Section        0  cbus.o(i._ZN4CBUS17TestIfVerifyErrorEv)
    i._ZN4CBUS2TxEh                          0x080082e0   Section        0  cbus.o(i._ZN4CBUS2TxEh)
    i._ZN4CBUS4InitEv                        0x080082fc   Section        0  cbus.o(i._ZN4CBUS4InitEv)
    i._ZN4CBUS5PrintEPc                      0x080083c4   Section        0  cbus.o(i._ZN4CBUS5PrintEPc)
    i._ZN4CBUS8TransmitEcPcj                 0x080083fe   Section        0  cbus.o(i._ZN4CBUS8TransmitEcPcj)
    i._ZN4CBUS9TestReplyEc                   0x08008440   Section        0  cbus.o(i._ZN4CBUS9TestReplyEc)
    i._ZN4IBUS14WaitForReceiveEj             0x08008478   Section        0  ibus.o(i._ZN4IBUS14WaitForReceiveEj)
    i._ZN4IBUS17TestIfVerifyErrorEv          0x080084d0   Section        0  ibus.o(i._ZN4IBUS17TestIfVerifyErrorEv)
    i._ZN4IBUS2TxEh                          0x080084e0   Section        0  ibus.o(i._ZN4IBUS2TxEh)
    i._ZN4IBUS4InitEv                        0x080084fc   Section        0  ibus.o(i._ZN4IBUS4InitEv)
    i._ZN4IBUS5PrintEPc                      0x080085bc   Section        0  ibus.o(i._ZN4IBUS5PrintEPc)
    i._ZN4IBUS8TransmitEcPcj                 0x080085f6   Section        0  ibus.o(i._ZN4IBUS8TransmitEcPcj)
    i._ZN4IBUS9TestReplyEc                   0x08008638   Section        0  ibus.o(i._ZN4IBUS9TestReplyEc)
    i._ZN5AUXIO18GetStatusMaterialAEv        0x08008678   Section        0  auxio.o(i._ZN5AUXIO18GetStatusMaterialAEv)
    i._ZN5AUXIO18GetStatusMaterialBEv        0x08008708   Section        0  auxio.o(i._ZN5AUXIO18GetStatusMaterialBEv)
    i._ZN5AUXIO18SetStatusMainLightEb        0x08008798   Section        0  auxio.o(i._ZN5AUXIO18SetStatusMainLightEb)
    i._ZN5AUXIO23SetStatusAuxiliaryLightEb   0x08008828   Section        0  auxio.o(i._ZN5AUXIO23SetStatusAuxiliaryLightEb)
    i._ZN5AUXIO8TestLinkEv                   0x080088b8   Section        0  auxio.o(i._ZN5AUXIO8TestLinkEv)
    i._ZN5CCONI10GetCommandEv                0x08008930   Section        0  cconi.o(i._ZN5CCONI10GetCommandEv)
    i._ZN5CCONI12SetStatusBarEv              0x080089d8   Section        0  cconi.o(i._ZN5CCONI12SetStatusBarEv)
    i._ZN5CCONI13HangUpConsoleEv             0x08008a98   Section        0  cconi.o(i._ZN5CCONI13HangUpConsoleEv)
    i._ZN5CCONI13SetInfoScreenEv             0x08008b18   Section        0  cconi.o(i._ZN5CCONI13SetInfoScreenEv)
    i._ZN5CCONI14ConsoleDisplayEPcb          0x08008dd0   Section        0  cconi.o(i._ZN5CCONI14ConsoleDisplayEPcb)
    i._ZN5CCONI16ExpandDictionaryEPc         0x08008ec0   Section        0  cconi.o(i._ZN5CCONI16ExpandDictionaryEPc)
    i._ZN5CCONI7Num2ChrEjPc                  0x08008f84   Section        0  cconi.o(i._ZN5CCONI7Num2ChrEjPc)
    i._ZN5CCONI8TestLinkEv                   0x08008fbc   Section        0  cconi.o(i._ZN5CCONI8TestLinkEv)
    i._ZN5FCONI11GetFileNameEv               0x08009034   Section        0  fconi.o(i._ZN5FCONI11GetFileNameEv)
    i._ZN5FCONI11GetFileSizeEv               0x08009100   Section        0  fconi.o(i._ZN5FCONI11GetFileSizeEv)
    i._ZN5FCONI12CharToNumberEhPh            0x080091b0   Section        0  fconi.o(i._ZN5FCONI12CharToNumberEhPh)
    i._ZN5FCONI12FileReadLineEhPh            0x080091f8   Section        0  fconi.o(i._ZN5FCONI12FileReadLineEhPh)
    i._ZN5FCONI12GetFileInfo1Ev              0x080092c4   Section        0  fconi.o(i._ZN5FCONI12GetFileInfo1Ev)
    i._ZN5FCONI12GetFileInfo2Ev              0x08009374   Section        0  fconi.o(i._ZN5FCONI12GetFileInfo2Ev)
    i._ZN5FCONI12GetFileInfo3Ev              0x08009424   Section        0  fconi.o(i._ZN5FCONI12GetFileInfo3Ev)
    i._ZN5FCONI12GetFileInfo4Ev              0x080094d4   Section        0  fconi.o(i._ZN5FCONI12GetFileInfo4Ev)
    i._ZN5FCONI12GetFileInfo5Ev              0x08009584   Section        0  fconi.o(i._ZN5FCONI12GetFileInfo5Ev)
    i._ZN5FCONI12GetFileInfo6Ev              0x08009634   Section        0  fconi.o(i._ZN5FCONI12GetFileInfo6Ev)
    i._ZN5FCONI13GetRestVolumeEv             0x080096e4   Section        0  fconi.o(i._ZN5FCONI13GetRestVolumeEv)
    i._ZN5FCONI14GetFilePointerEv            0x08009794   Section        0  fconi.o(i._ZN5FCONI14GetFilePointerEv)
    i._ZN5FCONI14GetTotalVolumeEv            0x08009844   Section        0  fconi.o(i._ZN5FCONI14GetTotalVolumeEv)
    i._ZN5FCONI19GetFileEstimateTimeEv       0x080098f4   Section        0  fconi.o(i._ZN5FCONI19GetFileEstimateTimeEv)
    i._ZN5FCONI20GetFileCommandNumberEv      0x080099a4   Section        0  fconi.o(i._ZN5FCONI20GetFileCommandNumberEv)
    i._ZN5FCONI20GetFileTotalDistanceEv      0x08009a54   Section        0  fconi.o(i._ZN5FCONI20GetFileTotalDistanceEv)
    i._ZN5FCONI8FileOpenEv                   0x08009b04   Section        0  fconi.o(i._ZN5FCONI8FileOpenEv)
    i._ZN5FCONI8FileTestEv                   0x08009bcc   Section        0  fconi.o(i._ZN5FCONI8FileTestEv)
    i._ZN5FCONI8TestLinkEv                   0x08009c94   Section        0  fconi.o(i._ZN5FCONI8TestLinkEv)
    i._ZN5SCONI10AutoHomingEv                0x08009d0c   Section        0  sconi.o(i._ZN5SCONI10AutoHomingEv)
    i._ZN5SCONI10DisableIDPEv                0x08009d94   Section        0  sconi.o(i._ZN5SCONI10DisableIDPEv)
    i._ZN5SCONI11GetStatusFAEv               0x08009e08   Section        0  sconi.o(i._ZN5SCONI11GetStatusFAEv)
    i._ZN5SCONI11SetPositionEdc              0x08009e94   Section        0  sconi.o(i._ZN5SCONI11SetPositionEdc)
    i._ZN5SCONI12GetPositionAEv              0x08009f94   Section        0  sconi.o(i._ZN5SCONI12GetPositionAEv)
    i._ZN5SCONI12GetPositionBEv              0x0800a01c   Section        0  sconi.o(i._ZN5SCONI12GetPositionBEv)
    i._ZN5SCONI12GetPositionXEv              0x0800a0a4   Section        0  sconi.o(i._ZN5SCONI12GetPositionXEv)
    i._ZN5SCONI12GetPositionYEv              0x0800a12c   Section        0  sconi.o(i._ZN5SCONI12GetPositionYEv)
    i._ZN5SCONI12GetPositionZEv              0x0800a1b4   Section        0  sconi.o(i._ZN5SCONI12GetPositionZEv)
    i._ZN5SCONI12GetStatusIDPEv              0x0800a23c   Section        0  sconi.o(i._ZN5SCONI12GetStatusIDPEv)
    i._ZN5SCONI13EnableStepperEv             0x0800a2b8   Section        0  sconi.o(i._ZN5SCONI13EnableStepperEv)
    i._ZN5SCONI13GetStatusBusyEv             0x0800a338   Section        0  sconi.o(i._ZN5SCONI13GetStatusBusyEv)
    i._ZN5SCONI13GetTestPointAEv             0x0800a3b4   Section        0  sconi.o(i._ZN5SCONI13GetTestPointAEv)
    i._ZN5SCONI13GetTestPointBEv             0x0800a43c   Section        0  sconi.o(i._ZN5SCONI13GetTestPointBEv)
    i._ZN5SCONI13GetTestPointCEv             0x0800a4c4   Section        0  sconi.o(i._ZN5SCONI13GetTestPointCEv)
    i._ZN5SCONI13GetTestPointDEv             0x0800a54c   Section        0  sconi.o(i._ZN5SCONI13GetTestPointDEv)
    i._ZN5SCONI13GetTestPointMEv             0x0800a5d4   Section        0  sconi.o(i._ZN5SCONI13GetTestPointMEv)
    i._ZN5SCONI14GetStatusHomedEv            0x0800a65c   Section        0  sconi.o(i._ZN5SCONI14GetStatusHomedEv)
    i._ZN5SCONI14SetNozzleStateEhh           0x0800a6d8   Section        0  sconi.o(i._ZN5SCONI14SetNozzleStateEhh)
    i._ZN5SCONI15GetPositionXMaxEv           0x0800a7a0   Section        0  sconi.o(i._ZN5SCONI15GetPositionXMaxEv)
    i._ZN5SCONI15GetPositionYMaxEv           0x0800a828   Section        0  sconi.o(i._ZN5SCONI15GetPositionYMaxEv)
    i._ZN5SCONI15GetPositionZMaxEv           0x0800a8b0   Section        0  sconi.o(i._ZN5SCONI15GetPositionZMaxEv)
    i._ZN5SCONI16GetStatusStepperEv          0x0800a938   Section        0  sconi.o(i._ZN5SCONI16GetStatusStepperEv)
    i._ZN5SCONI17GetStatusLevelingEv         0x0800a9b4   Section        0  sconi.o(i._ZN5SCONI17GetStatusLevelingEv)
    i._ZN5SCONI6MotionEPdf                   0x0800aa40   Section        0  sconi.o(i._ZN5SCONI6MotionEPdf)
    i._ZN5SCONI7Chr2FloEPcjjb                0x0800abd4   Section        0  sconi.o(i._ZN5SCONI7Chr2FloEPcjjb)
    i._ZN5SCONI7Flo2ChrEPcdjjb               0x0800accc   Section        0  sconi.o(i._ZN5SCONI7Flo2ChrEPcdjjb)
    i._ZN5SCONI8GetL1MaxEv                   0x0800add8   Section        0  sconi.o(i._ZN5SCONI8GetL1MaxEv)
    i._ZN5SCONI8GetL2MaxEv                   0x0800ae6c   Section        0  sconi.o(i._ZN5SCONI8GetL2MaxEv)
    i._ZN5SCONI8MoveAxisEdh                  0x0800af00   Section        0  sconi.o(i._ZN5SCONI8MoveAxisEdh)
    i._ZN5SCONI8TestLinkEv                   0x0800b008   Section        0  sconi.o(i._ZN5SCONI8TestLinkEv)
    i._ZN5SCONI9EnableIDPEv                  0x0800b07c   Section        0  sconi.o(i._ZN5SCONI9EnableIDPEv)
    i._ZN5SCONI9GetL1RestEv                  0x0800b0f0   Section        0  sconi.o(i._ZN5SCONI9GetL1RestEv)
    i._ZN5SCONI9GetL2RestEv                  0x0800b184   Section        0  sconi.o(i._ZN5SCONI9GetL2RestEv)
    i._ZN5SHELL4InitEv                       0x0800b218   Section        0  shell.o(i._ZN5SHELL4InitEv)
    i._ZN5SHELL5FlushEv                      0x0800b22a   Section        0  shell.o(i._ZN5SHELL5FlushEv)
    i._ZN5SHELL5MatchEPcS0_                  0x0800b240   Section        0  shell.o(i._ZN5SHELL5MatchEPcS0_)
    i._ZN5SHELL5UpperEc                      0x0800b2ca   Section        0  shell.o(i._ZN5SHELL5UpperEc)
    i._ZN5SHELL7Chr2NumEPc                   0x0800b2e0   Section        0  shell.o(i._ZN5SHELL7Chr2NumEPc)
    i._ZN5SHELL7CompareEPcS0_                0x0800b330   Section        0  shell.o(i._ZN5SHELL7CompareEPcS0_)
    i._ZN5SHELL7DecoderEv                    0x0800b36c   Section        0  shell.o(i._ZN5SHELL7DecoderEv)
    i._ZN5SHELL7GetWordEPcS0_Rc              0x0800b8f4   Section        0  shell.o(i._ZN5SHELL7GetWordEPcS0_Rc)
    i._ZN5SHELL8DictInitEv                   0x0800b99c   Section        0  shell.o(i._ZN5SHELL8DictInitEv)
    i._ZN5SHELL8IsLetterEc                   0x0800bbbc   Section        0  shell.o(i._ZN5SHELL8IsLetterEc)
    i._ZN5SHELL8IsNumberEc                   0x0800bbda   Section        0  shell.o(i._ZN5SHELL8IsNumberEc)
    i._ZN5SHELL9GetNumberEPcRj               0x0800bbec   Section        0  shell.o(i._ZN5SHELL9GetNumberEPcRj)
    i._ZN5TCONI18GetStatusBasePlaneEv        0x0800bc70   Section        0  tconi.o(i._ZN5TCONI18GetStatusBasePlaneEv)
    i._ZN5TCONI18GetStatusExtruderAEv        0x0800bcec   Section        0  tconi.o(i._ZN5TCONI18GetStatusExtruderAEv)
    i._ZN5TCONI18GetStatusExtruderBEv        0x0800bd68   Section        0  tconi.o(i._ZN5TCONI18GetStatusExtruderBEv)
    i._ZN5TCONI23GetCoolerPowerExtruderAEv   0x0800bde4   Section        0  tconi.o(i._ZN5TCONI23GetCoolerPowerExtruderAEv)
    i._ZN5TCONI23GetCoolerPowerExtruderBEv   0x0800be74   Section        0  tconi.o(i._ZN5TCONI23GetCoolerPowerExtruderBEv)
    i._ZN5TCONI23GetHeaterPowerBasePlaneEv   0x0800bf04   Section        0  tconi.o(i._ZN5TCONI23GetHeaterPowerBasePlaneEv)
    i._ZN5TCONI23GetHeaterPowerExtruderAEv   0x0800bf94   Section        0  tconi.o(i._ZN5TCONI23GetHeaterPowerExtruderAEv)
    i._ZN5TCONI23GetHeaterPowerExtruderBEv   0x0800c024   Section        0  tconi.o(i._ZN5TCONI23GetHeaterPowerExtruderBEv)
    i._ZN5TCONI23GetTemperatureBPSettingEv   0x0800c0b4   Section        0  tconi.o(i._ZN5TCONI23GetTemperatureBPSettingEv)
    i._ZN5TCONI23GetTemperatureBasePlaneEv   0x0800c144   Section        0  tconi.o(i._ZN5TCONI23GetTemperatureBasePlaneEv)
    i._ZN5TCONI23GetTemperatureEASettingEv   0x0800c1d4   Section        0  tconi.o(i._ZN5TCONI23GetTemperatureEASettingEv)
    i._ZN5TCONI23GetTemperatureEBSettingEv   0x0800c264   Section        0  tconi.o(i._ZN5TCONI23GetTemperatureEBSettingEv)
    i._ZN5TCONI23GetTemperatureExtruderAEv   0x0800c2f4   Section        0  tconi.o(i._ZN5TCONI23GetTemperatureExtruderAEv)
    i._ZN5TCONI23GetTemperatureExtruderBEv   0x0800c384   Section        0  tconi.o(i._ZN5TCONI23GetTemperatureExtruderBEv)
    i._ZN5TCONI23SetCoolerPowerExtruderAEh   0x0800c414   Section        0  tconi.o(i._ZN5TCONI23SetCoolerPowerExtruderAEh)
    i._ZN5TCONI23SetCoolerPowerExtruderBEh   0x0800c4c4   Section        0  tconi.o(i._ZN5TCONI23SetCoolerPowerExtruderBEh)
    i._ZN5TCONI23SetTemperatureBPSettingEt   0x0800c574   Section        0  tconi.o(i._ZN5TCONI23SetTemperatureBPSettingEt)
    i._ZN5TCONI23SetTemperatureEASettingEt   0x0800c640   Section        0  tconi.o(i._ZN5TCONI23SetTemperatureEASettingEt)
    i._ZN5TCONI23SetTemperatureEBSettingEt   0x0800c710   Section        0  tconi.o(i._ZN5TCONI23SetTemperatureEBSettingEt)
    i._ZN5TCONI25GetTemperatureEnvironmentEv 0x0800c7e0   Section        0  tconi.o(i._ZN5TCONI25GetTemperatureEnvironmentEv)
    i._ZN5TCONI7Chr2FloEPcjjb                0x0800c870   Section        0  tconi.o(i._ZN5TCONI7Chr2FloEPcjjb)
    i._ZN5TCONI7Flo2ChrEPcdjjb               0x0800c968   Section        0  tconi.o(i._ZN5TCONI7Flo2ChrEPcdjjb)
    i._ZN5TCONI8TestLinkEv                   0x0800ca74   Section        0  tconi.o(i._ZN5TCONI8TestLinkEv)
    i._ZN7RTCLOCK11IIC_WaitAckEv             0x0800cae8   Section        0  rtclock.o(i._ZN7RTCLOCK11IIC_WaitAckEv)
    i._ZN7RTCLOCK11WriteEnableEv             0x0800cb34   Section        0  rtclock.o(i._ZN7RTCLOCK11WriteEnableEv)
    i._ZN7RTCLOCK12IIC_ReadByteEb            0x0800cb74   Section        0  rtclock.o(i._ZN7RTCLOCK12IIC_ReadByteEb)
    i._ZN7RTCLOCK12IIC_SendByteEh            0x0800cbd0   Section        0  rtclock.o(i._ZN7RTCLOCK12IIC_SendByteEh)
    i._ZN7RTCLOCK12WriteDisableEv            0x0800cc2a   Section        0  rtclock.o(i._ZN7RTCLOCK12WriteDisableEv)
    i._ZN7RTCLOCK4InitEv                     0x0800cc6c   Section        0  rtclock.o(i._ZN7RTCLOCK4InitEv)
    i._ZN7RTCLOCK4ReadERhh                   0x0800ccbc   Section        0  rtclock.o(i._ZN7RTCLOCK4ReadERhh)
    i._ZN7RTCLOCK5WriteEhh                   0x0800ccf8   Section        0  rtclock.o(i._ZN7RTCLOCK5WriteEhh)
    i._ZN7RTCLOCK7DelayUsEh                  0x0800cd4c   Section        0  rtclock.o(i._ZN7RTCLOCK7DelayUsEh)
    i._ZN7RTCLOCK7GetTimeEv                  0x0800cd78   Section        0  rtclock.o(i._ZN7RTCLOCK7GetTimeEv)
    i._ZN7RTCLOCK7IIC_AckEv                  0x0800cf00   Section        0  rtclock.o(i._ZN7RTCLOCK7IIC_AckEv)
    i._ZN7RTCLOCK8IIC_InitEv                 0x0800cf2e   Section        0  rtclock.o(i._ZN7RTCLOCK8IIC_InitEv)
    i._ZN7RTCLOCK8IIC_NAckEv                 0x0800cf40   Section        0  rtclock.o(i._ZN7RTCLOCK8IIC_NAckEv)
    i._ZN7RTCLOCK8IIC_StopEv                 0x0800cf6e   Section        0  rtclock.o(i._ZN7RTCLOCK8IIC_StopEv)
    i._ZN7RTCLOCK8ReadDataEh                 0x0800cf9c   Section        0  rtclock.o(i._ZN7RTCLOCK8ReadDataEh)
    i._ZN7RTCLOCK9IIC_StartEv                0x0800cfec   Section        0  rtclock.o(i._ZN7RTCLOCK9IIC_StartEv)
    i._ZN7RTCLOCK9WriteDataEhh               0x0800d01a   Section        0  rtclock.o(i._ZN7RTCLOCK9WriteDataEhh)
    i._ZN8AUTOMATE10ClickCountEv             0x0800d05c   Section        0  automate.o(i._ZN8AUTOMATE10ClickCountEv)
    i._ZN8AUTOMATE13AUX1GetStatusEv          0x0800d07c   Section        0  automate.o(i._ZN8AUTOMATE13AUX1GetStatusEv)
    i._ZN8AUTOMATE13FCONGetStatusEv          0x0800d0b0   Section        0  automate.o(i._ZN8AUTOMATE13FCONGetStatusEv)
    i._ZN8AUTOMATE13SCONGetStatusEv          0x0800d134   Section        0  automate.o(i._ZN8AUTOMATE13SCONGetStatusEv)
    i._ZN8AUTOMATE13TCONGetStatusEv          0x0800d1c0   Section        0  automate.o(i._ZN8AUTOMATE13TCONGetStatusEv)
    i._ZN8AUTOMATE15InfoLCDRefreashEv        0x0800d244   Section        0  automate.o(i._ZN8AUTOMATE15InfoLCDRefreashEv)
    i._ZN8AUTOMATE16InterpreterRoundEv       0x0800d278   Section        0  automate.o(i._ZN8AUTOMATE16InterpreterRoundEv)
    i._ZN8AUTOMATE16StatusBarRefreshEv       0x0800d288   Section        0  automate.o(i._ZN8AUTOMATE16StatusBarRefreshEv)
    i._ZN8AUTOMATE17ConsoleGetCommandEv      0x0800d5f4   Section        0  automate.o(i._ZN8AUTOMATE17ConsoleGetCommandEv)
    i._ZN8AUTOMATE17RTCGetStatusCountEv      0x0800d630   Section        0  automate.o(i._ZN8AUTOMATE17RTCGetStatusCountEv)
    i._ZN8AUTOMATE18AUX1GetStatusCountEv     0x0800d648   Section        0  automate.o(i._ZN8AUTOMATE18AUX1GetStatusCountEv)
    i._ZN8AUTOMATE18FCONGetStatusCountEv     0x0800d660   Section        0  automate.o(i._ZN8AUTOMATE18FCONGetStatusCountEv)
    i._ZN8AUTOMATE18SCONGetStatusCountEv     0x0800d676   Section        0  automate.o(i._ZN8AUTOMATE18SCONGetStatusCountEv)
    i._ZN8AUTOMATE18TCONGetStatusCountEv     0x0800d68c   Section        0  automate.o(i._ZN8AUTOMATE18TCONGetStatusCountEv)
    i._ZN8AUTOMATE20InfoLCDRefreashCountEv   0x0800d6a2   Section        0  automate.o(i._ZN8AUTOMATE20InfoLCDRefreashCountEv)
    i._ZN8AUTOMATE21InterpreterRoundCountEv  0x0800d6b8   Section        0  automate.o(i._ZN8AUTOMATE21InterpreterRoundCountEv)
    i._ZN8AUTOMATE22ConsoleGetCommandCountEv 0x0800d6d0   Section        0  automate.o(i._ZN8AUTOMATE22ConsoleGetCommandCountEv)
    i._ZN8AUTOMATE4InitEv                    0x0800d6e8   Section        0  automate.o(i._ZN8AUTOMATE4InitEv)
    i._ZN8AUTOMATE8CheckingEh                0x0800d75c   Section        0  automate.o(i._ZN8AUTOMATE8CheckingEh)
    i.main                                   0x0800d804   Section        0  main.o(i.main)
    x$fpl$d2f                                0x0800d884   Section       98  d2f.o(x$fpl$d2f)
    x$fpl$dadd                               0x0800d8e8   Section      336  daddsub_clz.o(x$fpl$dadd)
    _dadd1                                   0x0800d8f9   Thumb Code     0  daddsub_clz.o(x$fpl$dadd)
    x$fpl$dcmpinf                            0x0800da38   Section       24  dcmpi.o(x$fpl$dcmpinf)
    x$fpl$ddiv                               0x0800da50   Section      688  ddiv.o(x$fpl$ddiv)
    ddiv_entry                               0x0800da57   Thumb Code     0  ddiv.o(x$fpl$ddiv)
    x$fpl$dfixu                              0x0800dd00   Section       90  dfixu.o(x$fpl$dfixu)
    x$fpl$dflt                               0x0800dd5a   Section       46  dflt_clz.o(x$fpl$dflt)
    x$fpl$dfltll                             0x0800dd88   Section      162  dfltll_clz.o(x$fpl$dfltll)
    x$fpl$dfltu                              0x0800de2a   Section       38  dflt_clz.o(x$fpl$dfltu)
    x$fpl$dleqf                              0x0800de50   Section      120  dleqf.o(x$fpl$dleqf)
    x$fpl$dmul                               0x0800dec8   Section      340  dmul.o(x$fpl$dmul)
    x$fpl$dnaninf                            0x0800e01c   Section      156  dnaninf.o(x$fpl$dnaninf)
    x$fpl$dretinf                            0x0800e0b8   Section       12  dretinf.o(x$fpl$dretinf)
    x$fpl$drleqf                             0x0800e0c4   Section      108  drleqf.o(x$fpl$drleqf)
    x$fpl$dsub                               0x0800e130   Section      468  daddsub_clz.o(x$fpl$dsub)
    _dsub1                                   0x0800e141   Thumb Code     0  daddsub_clz.o(x$fpl$dsub)
    x$fpl$f2d                                0x0800e304   Section       86  f2d.o(x$fpl$f2d)
    x$fpl$fcmpinf                            0x0800e35a   Section       24  fcmpi.o(x$fpl$fcmpinf)
    x$fpl$fdiv                               0x0800e374   Section      388  fdiv.o(x$fpl$fdiv)
    _fdiv1                                   0x0800e375   Thumb Code     0  fdiv.o(x$fpl$fdiv)
    x$fpl$fleqf                              0x0800e4f8   Section      104  fleqf.o(x$fpl$fleqf)
    x$fpl$fnaninf                            0x0800e560   Section      140  fnaninf.o(x$fpl$fnaninf)
    x$fpl$fretinf                            0x0800e5ec   Section       10  fretinf.o(x$fpl$fretinf)
    x$fpl$frleqf                             0x0800e5f6   Section       98  frleqf.o(x$fpl$frleqf)
    x$fpl$llsfromd                           0x0800e658   Section      194  dfixll.o(x$fpl$llsfromd)
    x$fpl$usenofp                            0x0800e71a   Section        0  usenofp.o(x$fpl$usenofp)
    .constdata                               0x0800e720   Section      176  fconi.o(.constdata)
    .constdata                               0x0800e7d0   Section       16  cconi.o(.constdata)
    Weight                                   0x0800e7d0   Data          16  cconi.o(.constdata)
    .data                                    0x20000000   Section        4  automate.o(.data)
    OFFSET_LINK                              0x20000000   Data           1  automate.o(.data)
    OFFSET_MATERIAL                          0x20000001   Data           1  automate.o(.data)
    OFFSET_INTRP                             0x20000002   Data           1  automate.o(.data)
    OFFSET_TIME                              0x20000003   Data           1  automate.o(.data)
    .data                                    0x20000008   Section      200  sconi.o(.data)
    Weight                                   0x20000010   Data          96  sconi.o(.data)
    Weight                                   0x20000070   Data          96  sconi.o(.data)
    .data                                    0x200000d0   Section      200  tconi.o(.data)
    Weight                                   0x200000d8   Data          96  tconi.o(.data)
    Weight                                   0x20000138   Data          96  tconi.o(.data)
    .data                                    0x20000198   Section        1  fconi.o(.data)
    .data                                    0x200001a0   Section      200  cconi.o(.data)
    Weight                                   0x200001a8   Data          96  cconi.o(.data)
    Weight                                   0x20000208   Data          96  cconi.o(.data)
    .data                                    0x20000268   Section        1  auxio.o(.data)
    .data                                    0x20000270   Section       96  shell.o(.data)
    Weight                                   0x20000270   Data          96  shell.o(.data)
    .data                                    0x200002d0   Section      104  instruction.o(.data)
    Weight                                   0x200002d8   Data          96  instruction.o(.data)
    .data                                    0x20000338   Section      280  interpreter.o(.data)
    WeightI                                  0x20000338   Data          96  interpreter.o(.data)
    WeightD                                  0x20000398   Data          88  interpreter.o(.data)
    Weight                                   0x200003f0   Data          96  interpreter.o(.data)
    .data                                    0x20000450   Section        1  rtclock.o(.data)
    .bss                                     0x20000454   Section       68  automate.o(.bss)
    .bss                                     0x20000498   Section      260  cbus.o(.bss)
    .bss                                     0x2000059c   Section      514  ibus.o(.bss)
    .bss                                     0x2000079e   Section      516  abus.o(.bss)
    .bss                                     0x200009a8   Section      288  status.o(.bss)
    .bss                                     0x20000ac8   Section     3336  shell.o(.bss)
    .bss                                     0x200017d0   Section      130  instruction.o(.bss)
    Data                                     0x200017d0   Data          10  instruction.o(.bss)
    Data                                     0x200017da   Data          10  instruction.o(.bss)
    Data                                     0x200017e4   Data          10  instruction.o(.bss)
    Data                                     0x200017ee   Data          10  instruction.o(.bss)
    Data                                     0x200017f8   Data          10  instruction.o(.bss)
    Temp                                     0x20001802   Data          80  instruction.o(.bss)
    .bss                                     0x20001858   Section     3496  interpreter.o(.bss)
    .bss                                     0x20002600   Section       96  libspace.o(.bss)
    HEAP                                     0x20002660   Section      512  startup_stm32f10x_md.o(HEAP)
    Heap_Mem                                 0x20002660   Data         512  startup_stm32f10x_md.o(HEAP)
    STACK                                    0x20002860   Section     1024  startup_stm32f10x_md.o(STACK)
    Stack_Mem                                0x20002860   Data        1024  startup_stm32f10x_md.o(STACK)
    __initial_sp                             0x20002c60   Data           0  startup_stm32f10x_md.o(STACK)

    Global Symbols

    Symbol Name                              Value     Ov Type        Size  Object(Section)

    BuildAttributes$$THM_ISAv4$P$D$K$B$S$PE$A:L22UL41UL21$X:L11$S22US41US21$IEEE1$IW$USESV6$~STKCKD$USESV7$~SHL$OSPACE$ROPI$EBA8$UX$STANDARDLIB$REQ8$PRES8$EABIv2 0x00000000   Number         0  anon$$obj.o ABSOLUTE
    __ARM_use_no_argv                        0x00000000   Number         0  main.o ABSOLUTE
    __ARM_exceptions_init                     - Undefined Weak Reference
    __alloca_initialize                       - Undefined Weak Reference
    __arm_preinit_                            - Undefined Weak Reference
    __cpp_initialize__aeabi_                  - Undefined Weak Reference
    __cxa_finalize                            - Undefined Weak Reference
    __rt_locale                               - Undefined Weak Reference
    __sigvec_lookup                           - Undefined Weak Reference
    _atexit_init                              - Undefined Weak Reference
    _call_atexit_fns                          - Undefined Weak Reference
    _clock_init                               - Undefined Weak Reference
    _fp_trap_init                             - Undefined Weak Reference
    _fp_trap_shutdown                         - Undefined Weak Reference
    _get_lc_collate                           - Undefined Weak Reference
    _get_lc_ctype                             - Undefined Weak Reference
    _get_lc_monetary                          - Undefined Weak Reference
    _get_lc_numeric                           - Undefined Weak Reference
    _get_lc_time                              - Undefined Weak Reference
    _getenv_init                              - Undefined Weak Reference
    _handle_redirection                       - Undefined Weak Reference
    _init_alloc                               - Undefined Weak Reference
    _init_user_alloc                          - Undefined Weak Reference
    _initio                                   - Undefined Weak Reference
    _rand_init                                - Undefined Weak Reference
    _signal_finish                            - Undefined Weak Reference
    _signal_init                              - Undefined Weak Reference
    _terminate_alloc                          - Undefined Weak Reference
    _terminate_user_alloc                     - Undefined Weak Reference
    _terminateio                              - Undefined Weak Reference
    __Vectors_Size                           0x000000ec   Number         0  startup_stm32f10x_md.o ABSOLUTE
    __Vectors                                0x08000000   Data           4  startup_stm32f10x_md.o(RESET)
    __Vectors_End                            0x080000ec   Data           0  startup_stm32f10x_md.o(RESET)
    __main                                   0x080000ed   Thumb Code     8  __main.o(!!!main)
    __scatterload                            0x080000f5   Thumb Code     0  __scatter.o(!!!scatter)
    __scatterload_rt2                        0x080000f5   Thumb Code    44  __scatter.o(!!!scatter)
    __scatterload_rt2_thumb_only             0x080000f5   Thumb Code     0  __scatter.o(!!!scatter)
    __scatterload_null                       0x08000103   Thumb Code     0  __scatter.o(!!!scatter)
    __decompress                             0x08000129   Thumb Code   100  __dclz77c.o(!!dclz77c)
    __decompress2                            0x08000129   Thumb Code     0  __dclz77c.o(!!dclz77c)
    __scatterload_zeroinit                   0x0800018d   Thumb Code    28  __scatter_zi.o(!!handler_zi)
    __rt_lib_init                            0x080001a9   Thumb Code     0  libinit.o(.ARM.Collect$$libinit$$00000000)
    __rt_lib_init_alloca_1                   0x080001ab   Thumb Code     0  libinit2.o(.ARM.Collect$$libinit$$0000002E)
    __rt_lib_init_argv_1                     0x080001ab   Thumb Code     0  libinit2.o(.ARM.Collect$$libinit$$0000002C)
    __rt_lib_init_atexit_1                   0x080001ab   Thumb Code     0  libinit2.o(.ARM.Collect$$libinit$$0000001B)
    __rt_lib_init_clock_1                    0x080001ab   Thumb Code     0  libinit2.o(.ARM.Collect$$libinit$$00000021)
    __rt_lib_init_cpp_1                      0x080001ab   Thumb Code     0  libinit2.o(.ARM.Collect$$libinit$$00000032)
    __rt_lib_init_exceptions_1               0x080001ab   Thumb Code     0  libinit2.o(.ARM.Collect$$libinit$$00000030)
    __rt_lib_init_fp_1                       0x080001ab   Thumb Code     0  libinit2.o(.ARM.Collect$$libinit$$00000002)
    __rt_lib_init_fp_trap_1                  0x080001ab   Thumb Code     0  libinit2.o(.ARM.Collect$$libinit$$0000001F)
    __rt_lib_init_getenv_1                   0x080001ab   Thumb Code     0  libinit2.o(.ARM.Collect$$libinit$$00000023)
    __rt_lib_init_heap_1                     0x080001ab   Thumb Code     0  libinit2.o(.ARM.Collect$$libinit$$0000000A)
    __rt_lib_init_lc_collate_1               0x080001ab   Thumb Code     0  libinit2.o(.ARM.Collect$$libinit$$00000011)
    __rt_lib_init_lc_ctype_1                 0x080001ab   Thumb Code     0  libinit2.o(.ARM.Collect$$libinit$$00000013)
    __rt_lib_init_lc_monetary_1              0x080001ab   Thumb Code     0  libinit2.o(.ARM.Collect$$libinit$$00000015)
    __rt_lib_init_lc_numeric_1               0x080001ab   Thumb Code     0  libinit2.o(.ARM.Collect$$libinit$$00000017)
    __rt_lib_init_lc_time_1                  0x080001ab   Thumb Code     0  libinit2.o(.ARM.Collect$$libinit$$00000019)
    __rt_lib_init_preinit_1                  0x080001ab   Thumb Code     0  libinit2.o(.ARM.Collect$$libinit$$00000004)
    __rt_lib_init_rand_1                     0x080001ab   Thumb Code     0  libinit2.o(.ARM.Collect$$libinit$$0000000E)
    __rt_lib_init_return                     0x080001ab   Thumb Code     0  libinit2.o(.ARM.Collect$$libinit$$00000033)
    __rt_lib_init_signal_1                   0x080001ab   Thumb Code     0  libinit2.o(.ARM.Collect$$libinit$$0000001D)
    __rt_lib_init_stdio_1                    0x080001ab   Thumb Code     0  libinit2.o(.ARM.Collect$$libinit$$00000025)
    __rt_lib_init_user_alloc_1               0x080001ab   Thumb Code     0  libinit2.o(.ARM.Collect$$libinit$$0000000C)
    __rt_lib_shutdown                        0x080001ad   Thumb Code     0  libshutdown.o(.ARM.Collect$$libshutdown$$00000000)
    __rt_lib_shutdown_cpp_1                  0x080001af   Thumb Code     0  libshutdown2.o(.ARM.Collect$$libshutdown$$00000002)
    __rt_lib_shutdown_fp_trap_1              0x080001af   Thumb Code     0  libshutdown2.o(.ARM.Collect$$libshutdown$$00000007)
    __rt_lib_shutdown_heap_1                 0x080001af   Thumb Code     0  libshutdown2.o(.ARM.Collect$$libshutdown$$0000000F)
    __rt_lib_shutdown_return                 0x080001af   Thumb Code     0  libshutdown2.o(.ARM.Collect$$libshutdown$$00000010)
    __rt_lib_shutdown_signal_1               0x080001af   Thumb Code     0  libshutdown2.o(.ARM.Collect$$libshutdown$$0000000A)
    __rt_lib_shutdown_stdio_1                0x080001af   Thumb Code     0  libshutdown2.o(.ARM.Collect$$libshutdown$$00000004)
    __rt_lib_shutdown_user_alloc_1           0x080001af   Thumb Code     0  libshutdown2.o(.ARM.Collect$$libshutdown$$0000000C)
    __rt_entry                               0x080001b1   Thumb Code     0  __rtentry.o(.ARM.Collect$$rtentry$$00000000)
    __rt_entry_presh_1                       0x080001b1   Thumb Code     0  __rtentry2.o(.ARM.Collect$$rtentry$$00000002)
    __rt_entry_sh                            0x080001b1   Thumb Code     0  __rtentry4.o(.ARM.Collect$$rtentry$$00000004)
    __rt_entry_li                            0x080001b7   Thumb Code     0  __rtentry2.o(.ARM.Collect$$rtentry$$0000000A)
    __rt_entry_postsh_1                      0x080001b7   Thumb Code     0  __rtentry2.o(.ARM.Collect$$rtentry$$00000009)
    __rt_entry_main                          0x080001bb   Thumb Code     0  __rtentry2.o(.ARM.Collect$$rtentry$$0000000D)
    __rt_entry_postli_1                      0x080001bb   Thumb Code     0  __rtentry2.o(.ARM.Collect$$rtentry$$0000000C)
    __rt_exit                                0x080001c3   Thumb Code     0  rtexit.o(.ARM.Collect$$rtexit$$00000000)
    __rt_exit_ls                             0x080001c5   Thumb Code     0  rtexit2.o(.ARM.Collect$$rtexit$$00000003)
    __rt_exit_prels_1                        0x080001c5   Thumb Code     0  rtexit2.o(.ARM.Collect$$rtexit$$00000002)
    __rt_exit_exit                           0x080001c9   Thumb Code     0  rtexit2.o(.ARM.Collect$$rtexit$$00000004)
    Reset_Handler                            0x080001d1   Thumb Code     8  startup_stm32f10x_md.o(.text)
    NMI_Handler                              0x080001d9   Thumb Code     2  startup_stm32f10x_md.o(.text)
    HardFault_Handler                        0x080001db   Thumb Code     2  startup_stm32f10x_md.o(.text)
    MemManage_Handler                        0x080001dd   Thumb Code     2  startup_stm32f10x_md.o(.text)
    BusFault_Handler                         0x080001df   Thumb Code     2  startup_stm32f10x_md.o(.text)
    UsageFault_Handler                       0x080001e1   Thumb Code     2  startup_stm32f10x_md.o(.text)
    SVC_Handler                              0x080001e3   Thumb Code     2  startup_stm32f10x_md.o(.text)
    DebugMon_Handler                         0x080001e5   Thumb Code     2  startup_stm32f10x_md.o(.text)
    PendSV_Handler                           0x080001e7   Thumb Code     2  startup_stm32f10x_md.o(.text)
    SysTick_Handler                          0x080001e9   Thumb Code     2  startup_stm32f10x_md.o(.text)
    ADC1_2_IRQHandler                        0x080001eb   Thumb Code     0  startup_stm32f10x_md.o(.text)
    CAN1_RX1_IRQHandler                      0x080001eb   Thumb Code     0  startup_stm32f10x_md.o(.text)
    CAN1_SCE_IRQHandler                      0x080001eb   Thumb Code     0  startup_stm32f10x_md.o(.text)
    DMA1_Channel1_IRQHandler                 0x080001eb   Thumb Code     0  startup_stm32f10x_md.o(.text)
    DMA1_Channel2_IRQHandler                 0x080001eb   Thumb Code     0  startup_stm32f10x_md.o(.text)
    DMA1_Channel3_IRQHandler                 0x080001eb   Thumb Code     0  startup_stm32f10x_md.o(.text)
    DMA1_Channel4_IRQHandler                 0x080001eb   Thumb Code     0  startup_stm32f10x_md.o(.text)
    DMA1_Channel5_IRQHandler                 0x080001eb   Thumb Code     0  startup_stm32f10x_md.o(.text)
    DMA1_Channel6_IRQHandler                 0x080001eb   Thumb Code     0  startup_stm32f10x_md.o(.text)
    DMA1_Channel7_IRQHandler                 0x080001eb   Thumb Code     0  startup_stm32f10x_md.o(.text)
    EXTI0_IRQHandler                         0x080001eb   Thumb Code     0  startup_stm32f10x_md.o(.text)
    EXTI15_10_IRQHandler                     0x080001eb   Thumb Code     0  startup_stm32f10x_md.o(.text)
    EXTI1_IRQHandler                         0x080001eb   Thumb Code     0  startup_stm32f10x_md.o(.text)
    EXTI2_IRQHandler                         0x080001eb   Thumb Code     0  startup_stm32f10x_md.o(.text)
    EXTI3_IRQHandler                         0x080001eb   Thumb Code     0  startup_stm32f10x_md.o(.text)
    EXTI4_IRQHandler                         0x080001eb   Thumb Code     0  startup_stm32f10x_md.o(.text)
    EXTI9_5_IRQHandler                       0x080001eb   Thumb Code     0  startup_stm32f10x_md.o(.text)
    FLASH_IRQHandler                         0x080001eb   Thumb Code     0  startup_stm32f10x_md.o(.text)
    I2C1_ER_IRQHandler                       0x080001eb   Thumb Code     0  startup_stm32f10x_md.o(.text)
    I2C1_EV_IRQHandler                       0x080001eb   Thumb Code     0  startup_stm32f10x_md.o(.text)
    I2C2_ER_IRQHandler                       0x080001eb   Thumb Code     0  startup_stm32f10x_md.o(.text)
    I2C2_EV_IRQHandler                       0x080001eb   Thumb Code     0  startup_stm32f10x_md.o(.text)
    PVD_IRQHandler                           0x080001eb   Thumb Code     0  startup_stm32f10x_md.o(.text)
    RCC_IRQHandler                           0x080001eb   Thumb Code     0  startup_stm32f10x_md.o(.text)
    RTCAlarm_IRQHandler                      0x080001eb   Thumb Code     0  startup_stm32f10x_md.o(.text)
    RTC_IRQHandler                           0x080001eb   Thumb Code     0  startup_stm32f10x_md.o(.text)
    SPI1_IRQHandler                          0x080001eb   Thumb Code     0  startup_stm32f10x_md.o(.text)
    SPI2_IRQHandler                          0x080001eb   Thumb Code     0  startup_stm32f10x_md.o(.text)
    TAMPER_IRQHandler                        0x080001eb   Thumb Code     0  startup_stm32f10x_md.o(.text)
    TIM1_BRK_IRQHandler                      0x080001eb   Thumb Code     0  startup_stm32f10x_md.o(.text)
    TIM1_CC_IRQHandler                       0x080001eb   Thumb Code     0  startup_stm32f10x_md.o(.text)
    TIM1_TRG_COM_IRQHandler                  0x080001eb   Thumb Code     0  startup_stm32f10x_md.o(.text)
    TIM1_UP_IRQHandler                       0x080001eb   Thumb Code     0  startup_stm32f10x_md.o(.text)
    TIM2_IRQHandler                          0x080001eb   Thumb Code     0  startup_stm32f10x_md.o(.text)
    TIM4_IRQHandler                          0x080001eb   Thumb Code     0  startup_stm32f10x_md.o(.text)
    USBWakeUp_IRQHandler                     0x080001eb   Thumb Code     0  startup_stm32f10x_md.o(.text)
    USB_HP_CAN1_TX_IRQHandler                0x080001eb   Thumb Code     0  startup_stm32f10x_md.o(.text)
    USB_LP_CAN1_RX0_IRQHandler               0x080001eb   Thumb Code     0  startup_stm32f10x_md.o(.text)
    WWDG_IRQHandler                          0x080001eb   Thumb Code     0  startup_stm32f10x_md.o(.text)
    __user_initial_stackheap                 0x080001ed   Thumb Code     0  startup_stm32f10x_md.o(.text)
    __aeabi_uldivmod                         0x08000211   Thumb Code     0  lludivv7m.o(.text)
    _ll_udiv                                 0x08000211   Thumb Code   238  lludivv7m.o(.text)
    __aeabi_ldivmod                          0x080002ff   Thumb Code     0  llsdiv.o(.text)
    _ll_sdiv                                 0x080002ff   Thumb Code    72  llsdiv.o(.text)
    __aeabi_memcpy4                          0x08000347   Thumb Code     0  rt_memcpy_w.o(.text)
    __aeabi_memcpy8                          0x08000347   Thumb Code     0  rt_memcpy_w.o(.text)
    __rt_memcpy_w                            0x08000347   Thumb Code   100  rt_memcpy_w.o(.text)
    _memcpy_lastbytes_aligned                0x0800038f   Thumb Code     0  rt_memcpy_w.o(.text)
    __aeabi_memclr4                          0x080003ab   Thumb Code     0  rt_memclr_w.o(.text)
    __aeabi_memclr8                          0x080003ab   Thumb Code     0  rt_memclr_w.o(.text)
    __rt_memclr_w                            0x080003ab   Thumb Code    78  rt_memclr_w.o(.text)
    _memset_w                                0x080003af   Thumb Code     0  rt_memclr_w.o(.text)
    __use_two_region_memory                  0x080003f9   Thumb Code     2  heapauxi.o(.text)
    __rt_heap_escrow$2region                 0x080003fb   Thumb Code     2  heapauxi.o(.text)
    __rt_heap_expand$2region                 0x080003fd   Thumb Code     2  heapauxi.o(.text)
    __user_setup_stackheap                   0x080003ff   Thumb Code    74  sys_stackheap_outer.o(.text)
    exit                                     0x08000449   Thumb Code    18  exit.o(.text)
    __user_libspace                          0x0800045d   Thumb Code     8  libspace.o(.text)
    __user_perproc_libspace                  0x0800045d   Thumb Code     0  libspace.o(.text)
    __user_perthread_libspace                0x0800045d   Thumb Code     0  libspace.o(.text)
    _sys_exit                                0x08000465   Thumb Code     8  sys_exit.o(.text)
    __I$use$semihosting                      0x08000471   Thumb Code     0  use_no_semi.o(.text)
    __use_no_semihosting_swi                 0x08000471   Thumb Code     2  use_no_semi.o(.text)
    __semihosting_library_function           0x08000473   Thumb Code     0  indicate_semi.o(.text)
    SystemInit                               0x0800055d   Thumb Code    78  system_stm32f10x.o(i.SystemInit)
    TIM3_IRQHandler                          0x080005bd   Thumb Code    80  automate.o(i.TIM3_IRQHandler)
    USART1_IRQHandler                        0x08000615   Thumb Code   146  abus.o(i.USART1_IRQHandler)
    USART2_IRQHandler                        0x080006b1   Thumb Code   144  ibus.o(i.USART2_IRQHandler)
    USART3_IRQHandler                        0x08000749   Thumb Code   138  cbus.o(i.USART3_IRQHandler)
    IIC_GetSDA()                             0x080007dd   Thumb Code    18  rtclock.o(i._Z10IIC_GetSDAv)
    IIC_SCL(bool)                            0x080007f5   Thumb Code    34  rtclock.o(i._Z7IIC_SCLb)
    IIC_SDA(bool)                            0x0800081d   Thumb Code    34  rtclock.o(i._Z7IIC_SDAb)
    Delay_Ms(unsigned)                       0x08000845   Thumb Code    48  main.o(i._Z8Delay_Msj)
    INSTRUCTION::DisableIDP()                0x08000879   Thumb Code   112  instruction.o(i._ZN11INSTRUCTION10DisableIDPEv)
    INSTRUCTION::SetColExtA(unsigned)        0x08000989   Thumb Code   206  instruction.o(i._ZN11INSTRUCTION10SetColExtAEj)
    INSTRUCTION::SetColExtB(unsigned)        0x08000b1d   Thumb Code   206  instruction.o(i._ZN11INSTRUCTION10SetColExtBEj)
    INSTRUCTION::SetTemExtA(unsigned)        0x08000cb1   Thumb Code   262  instruction.o(i._ZN11INSTRUCTION10SetTemExtAEj)
    INSTRUCTION::SetTemExtB(unsigned)        0x08000f05   Thumb Code   262  instruction.o(i._ZN11INSTRUCTION10SetTemExtBEj)
    INSTRUCTION::RefreshDict()               0x08001159   Thumb Code    30  instruction.o(i._ZN11INSTRUCTION11RefreshDictEv)
    INSTRUCTION::StorageInfo()               0x08001199   Thumb Code   378  instruction.o(i._ZN11INSTRUCTION11StorageInfoEv)
    INSTRUCTION::WarningInfo()               0x080013c5   Thumb Code   408  instruction.o(i._ZN11INSTRUCTION11WarningInfoEv)
    INSTRUCTION::EnableNozzleA()             0x08001621   Thumb Code   362  instruction.o(i._ZN11INSTRUCTION13EnableNozzleAEv)
    INSTRUCTION::EnableNozzleB()             0x08001909   Thumb Code   362  instruction.o(i._ZN11INSTRUCTION13EnableNozzleBEv)
    INSTRUCTION::EnableStepper()             0x08001bf1   Thumb Code   150  instruction.o(i._ZN11INSTRUCTION13EnableStepperEv)
    INSTRUCTION::DisableNozzleA()            0x08001d65   Thumb Code   362  instruction.o(i._ZN11INSTRUCTION14DisableNozzleAEv)
    INSTRUCTION::DisableNozzleB()            0x0800204d   Thumb Code   362  instruction.o(i._ZN11INSTRUCTION14DisableNozzleBEv)
    INSTRUCTION::ReloadFilament()            0x08002335   Thumb Code    56  instruction.o(i._ZN11INSTRUCTION14ReloadFilamentEv)
    INSTRUCTION::EnableMainLight()           0x080023b9   Thumb Code    98  instruction.o(i._ZN11INSTRUCTION15EnableMainLightEv)
    INSTRUCTION::DisableMainLight()          0x080024a1   Thumb Code    98  instruction.o(i._ZN11INSTRUCTION16DisableMainLightEv)
    INSTRUCTION::ManufacturingInfo()         0x08002589   Thumb Code   156  instruction.o(i._ZN11INSTRUCTION17ManufacturingInfoEv)
    INSTRUCTION::StopManufacturing()         0x080026c1   Thumb Code    56  instruction.o(i._ZN11INSTRUCTION17StopManufacturingEv)
    INSTRUCTION::PauseManufacturing()        0x08002745   Thumb Code    56  instruction.o(i._ZN11INSTRUCTION18PauseManufacturingEv)
    INSTRUCTION::StartManufacturing()        0x080027c9   Thumb Code   192  instruction.o(i._ZN11INSTRUCTION18StartManufacturingEv)
    INSTRUCTION::ManufacturingReport()       0x080029a9   Thumb Code   128  instruction.o(i._ZN11INSTRUCTION19ManufacturingReportEv)
    INSTRUCTION::ResumeManufacturing()       0x08002aad   Thumb Code   104  instruction.o(i._ZN11INSTRUCTION19ResumeManufacturingEv)
    INSTRUCTION::EnableAuxiliaryLight()      0x08002b91   Thumb Code    98  instruction.o(i._ZN11INSTRUCTION20EnableAuxiliaryLightEv)
    INSTRUCTION::DisableAuxiliaryLight()     0x08002c79   Thumb Code    98  instruction.o(i._ZN11INSTRUCTION21DisableAuxiliaryLightEv)
    INSTRUCTION::Num2Chr(char*, unsigned)    0x08002d61   Thumb Code   136  instruction.o(i._ZN11INSTRUCTION7Num2ChrEPcj)
    INSTRUCTION::AutoHome()                  0x08002ded   Thumb Code   720  instruction.o(i._ZN11INSTRUCTION8AutoHomeEv)
    INSTRUCTION::NotFound()                  0x08003279   Thumb Code    16  instruction.o(i._ZN11INSTRUCTION8NotFoundEv)
    INSTRUCTION::PrintNum(unsigned)          0x080032a9   Thumb Code    36  instruction.o(i._ZN11INSTRUCTION8PrintNumEj)
    INSTRUCTION::SetTemBP(unsigned)          0x080032d5   Thumb Code   260  instruction.o(i._ZN11INSTRUCTION8SetTemBPEj)
    INSTRUCTION::EnableIDP()                 0x08003525   Thumb Code   112  instruction.o(i._ZN11INSTRUCTION9EnableIDPEv)
    INSTRUCTION::ErrorInfo()                 0x08003635   Thumb Code   788  instruction.o(i._ZN11INSTRUCTION9ErrorInfoEv)
    INSTRUCTION::MoveAxisX(unsigned)         0x08003af9   Thumb Code   376  instruction.o(i._ZN11INSTRUCTION9MoveAxisXEj)
    INSTRUCTION::MoveAxisY(unsigned)         0x08003ded   Thumb Code   376  instruction.o(i._ZN11INSTRUCTION9MoveAxisYEj)
    INSTRUCTION::MoveAxisZ(unsigned)         0x080040e1   Thumb Code   376  instruction.o(i._ZN11INSTRUCTION9MoveAxisZEj)
    INTERPRETER::AbsDecimal(int)             0x080043d5   Thumb Code    14  interpreter.o(i._ZN11INTERPRETER10AbsDecimalEi)
    INTERPRETER::StatusCheck()               0x080043e5   Thumb Code   166  interpreter.o(i._ZN11INTERPRETER11StatusCheckEv)
    INTERPRETER::CharToDouble(unsigned char*) 0x08004495   Thumb Code   288  interpreter.o(i._ZN11INTERPRETER12CharToDoubleEPh)
    INTERPRETER::LocalAnalyse()              0x080045c5   Thumb Code  7254  interpreter.o(i._ZN11INTERPRETER12LocalAnalyseEv)
    INTERPRETER::CharToDecimal(unsigned char*) 0x08006225   Thumb Code   122  interpreter.o(i._ZN11INTERPRETER13CharToDecimalEPh)
    INTERPRETER::GetInstruction()            0x080062a5   Thumb Code  1180  interpreter.o(i._ZN11INTERPRETER14GetInstructionEv)
    INTERPRETER::Init()                      0x08006741   Thumb Code   378  interpreter.o(i._ZN11INTERPRETER4InitEv)
    INTERPRETER::Stop()                      0x080068c1   Thumb Code    22  interpreter.o(i._ZN11INTERPRETER4StopEv)
    INTERPRETER::Tick()                      0x080068d7   Thumb Code    70  interpreter.o(i._ZN11INTERPRETER4TickEv)
    INTERPRETER::Pause()                     0x0800691d   Thumb Code    22  interpreter.o(i._ZN11INTERPRETER5PauseEv)
    INTERPRETER::Reset()                     0x08006935   Thumb Code   380  interpreter.o(i._ZN11INTERPRETER5ResetEv)
    INTERPRETER::Round()                     0x08006ab5   Thumb Code  2126  interpreter.o(i._ZN11INTERPRETER5RoundEv)
    INTERPRETER::Start()                     0x08007319   Thumb Code    50  interpreter.o(i._ZN11INTERPRETER5StartEv)
    INTERPRETER::ReLoad()                    0x0800734b   Thumb Code    22  interpreter.o(i._ZN11INTERPRETER6ReLoadEv)
    INTERPRETER::Resume()                    0x08007361   Thumb Code    42  interpreter.o(i._ZN11INTERPRETER6ResumeEv)
    INTERPRETER::Process()                   0x0800738d   Thumb Code  2968  interpreter.o(i._ZN11INTERPRETER7ProcessEv)
    INTERPRETER::PreCheck()                  0x08007f31   Thumb Code   234  interpreter.o(i._ZN11INTERPRETER8PreCheckEv)
    INTERPRETER::AxisRound(double&, double)  0x08008031   Thumb Code    62  interpreter.o(i._ZN11INTERPRETER9AxisRoundERdd)
    ABUS::WaitForReceive(unsigned)           0x08008071   Thumb Code    82  abus.o(i._ZN4ABUS14WaitForReceiveEj)
    ABUS::TestIfVerifyError()                0x080080c9   Thumb Code    14  abus.o(i._ZN4ABUS17TestIfVerifyErrorEv)
    ABUS::Tx(unsigned char)                  0x080080d9   Thumb Code    22  abus.o(i._ZN4ABUS2TxEh)
    ABUS::Init()                             0x080080f5   Thumb Code   178  abus.o(i._ZN4ABUS4InitEv)
    ABUS::Print(char*)                       0x080081bd   Thumb Code    58  abus.o(i._ZN4ABUS5PrintEPc)
    ABUS::Transmit(char, char*, unsigned)    0x080081f7   Thumb Code    66  abus.o(i._ZN4ABUS8TransmitEcPcj)
    ABUS::TestReply(char)                    0x08008239   Thumb Code    62  abus.o(i._ZN4ABUS9TestReplyEc)
    CBUS::WaitForReceive(unsigned)           0x08008279   Thumb Code    82  cbus.o(i._ZN4CBUS14WaitForReceiveEj)
    CBUS::TestIfVerifyError()                0x080082d1   Thumb Code    14  cbus.o(i._ZN4CBUS17TestIfVerifyErrorEv)
    CBUS::Tx(unsigned char)                  0x080082e1   Thumb Code    22  cbus.o(i._ZN4CBUS2TxEh)
    CBUS::Init()                             0x080082fd   Thumb Code   178  cbus.o(i._ZN4CBUS4InitEv)
    CBUS::Print(char*)                       0x080083c5   Thumb Code    58  cbus.o(i._ZN4CBUS5PrintEPc)
    CBUS::Transmit(char, char*, unsigned)    0x080083ff   Thumb Code    66  cbus.o(i._ZN4CBUS8TransmitEcPcj)
    CBUS::TestReply(char)                    0x08008441   Thumb Code    56  cbus.o(i._ZN4CBUS9TestReplyEc)
    IBUS::WaitForReceive(unsigned)           0x08008479   Thumb Code    82  ibus.o(i._ZN4IBUS14WaitForReceiveEj)
    IBUS::TestIfVerifyError()                0x080084d1   Thumb Code    14  ibus.o(i._ZN4IBUS17TestIfVerifyErrorEv)
    IBUS::Tx(unsigned char)                  0x080084e1   Thumb Code    22  ibus.o(i._ZN4IBUS2TxEh)
    IBUS::Init()                             0x080084fd   Thumb Code   172  ibus.o(i._ZN4IBUS4InitEv)
    IBUS::Print(char*)                       0x080085bd   Thumb Code    58  ibus.o(i._ZN4IBUS5PrintEPc)
    IBUS::Transmit(char, char*, unsigned)    0x080085f7   Thumb Code    66  ibus.o(i._ZN4IBUS8TransmitEcPcj)
    IBUS::TestReply(char)                    0x08008639   Thumb Code    62  ibus.o(i._ZN4IBUS9TestReplyEc)
    AUXIO::GetStatusMaterialA()              0x08008679   Thumb Code   128  auxio.o(i._ZN5AUXIO18GetStatusMaterialAEv)
    AUXIO::GetStatusMaterialB()              0x08008709   Thumb Code   128  auxio.o(i._ZN5AUXIO18GetStatusMaterialBEv)
    AUXIO::SetStatusMainLight(bool)          0x08008799   Thumb Code   124  auxio.o(i._ZN5AUXIO18SetStatusMainLightEb)
    AUXIO::SetStatusAuxiliaryLight(bool)     0x08008829   Thumb Code   124  auxio.o(i._ZN5AUXIO23SetStatusAuxiliaryLightEb)
    AUXIO::TestLink()                        0x080088b9   Thumb Code   106  auxio.o(i._ZN5AUXIO8TestLinkEv)
    CCONI::GetCommand()                      0x08008931   Thumb Code   152  cconi.o(i._ZN5CCONI10GetCommandEv)
    CCONI::SetStatusBar()                    0x080089d9   Thumb Code   182  cconi.o(i._ZN5CCONI12SetStatusBarEv)
    CCONI::HangUpConsole()                   0x08008a99   Thumb Code   114  cconi.o(i._ZN5CCONI13HangUpConsoleEv)
    CCONI::SetInfoScreen()                   0x08008b19   Thumb Code   680  cconi.o(i._ZN5CCONI13SetInfoScreenEv)
    CCONI::ConsoleDisplay(char*, bool)       0x08008dd1   Thumb Code   234  cconi.o(i._ZN5CCONI14ConsoleDisplayEPcb)
    CCONI::ExpandDictionary(char*)           0x08008ec1   Thumb Code   192  cconi.o(i._ZN5CCONI16ExpandDictionaryEPc)
    CCONI::Num2Chr(unsigned, char*)          0x08008f85   Thumb Code    50  cconi.o(i._ZN5CCONI7Num2ChrEjPc)
    CCONI::TestLink()                        0x08008fbd   Thumb Code   106  cconi.o(i._ZN5CCONI8TestLinkEv)
    FCONI::GetFileName()                     0x08009035   Thumb Code   196  fconi.o(i._ZN5FCONI11GetFileNameEv)
    FCONI::GetFileSize()                     0x08009101   Thumb Code   164  fconi.o(i._ZN5FCONI11GetFileSizeEv)
    FCONI::CharToNumber(unsigned char, unsigned char*) 0x080091b1   Thumb Code    68  fconi.o(i._ZN5FCONI12CharToNumberEhPh)
    FCONI::FileReadLine(unsigned char, unsigned char*) 0x080091f9   Thumb Code   198  fconi.o(i._ZN5FCONI12FileReadLineEhPh)
    FCONI::GetFileInfo1()                    0x080092c5   Thumb Code   164  fconi.o(i._ZN5FCONI12GetFileInfo1Ev)
    FCONI::GetFileInfo2()                    0x08009375   Thumb Code   164  fconi.o(i._ZN5FCONI12GetFileInfo2Ev)
    FCONI::GetFileInfo3()                    0x08009425   Thumb Code   164  fconi.o(i._ZN5FCONI12GetFileInfo3Ev)
    FCONI::GetFileInfo4()                    0x080094d5   Thumb Code   164  fconi.o(i._ZN5FCONI12GetFileInfo4Ev)
    FCONI::GetFileInfo5()                    0x08009585   Thumb Code   164  fconi.o(i._ZN5FCONI12GetFileInfo5Ev)
    FCONI::GetFileInfo6()                    0x08009635   Thumb Code   164  fconi.o(i._ZN5FCONI12GetFileInfo6Ev)
    FCONI::GetRestVolume()                   0x080096e5   Thumb Code   164  fconi.o(i._ZN5FCONI13GetRestVolumeEv)
    FCONI::GetFilePointer()                  0x08009795   Thumb Code   164  fconi.o(i._ZN5FCONI14GetFilePointerEv)
    FCONI::GetTotalVolume()                  0x08009845   Thumb Code   164  fconi.o(i._ZN5FCONI14GetTotalVolumeEv)
    FCONI::GetFileEstimateTime()             0x080098f5   Thumb Code   164  fconi.o(i._ZN5FCONI19GetFileEstimateTimeEv)
    FCONI::GetFileCommandNumber()            0x080099a5   Thumb Code   164  fconi.o(i._ZN5FCONI20GetFileCommandNumberEv)
    FCONI::GetFileTotalDistance()            0x08009a55   Thumb Code   164  fconi.o(i._ZN5FCONI20GetFileTotalDistanceEv)
    FCONI::FileOpen()                        0x08009b05   Thumb Code   192  fconi.o(i._ZN5FCONI8FileOpenEv)
    FCONI::FileTest()                        0x08009bcd   Thumb Code   192  fconi.o(i._ZN5FCONI8FileTestEv)
    FCONI::TestLink()                        0x08009c95   Thumb Code   106  fconi.o(i._ZN5FCONI8TestLinkEv)
    SCONI::AutoHoming()                      0x08009d0d   Thumb Code   120  sconi.o(i._ZN5SCONI10AutoHomingEv)
    SCONI::DisableIDP()                      0x08009d95   Thumb Code   106  sconi.o(i._ZN5SCONI10DisableIDPEv)
    SCONI::GetStatusFA()                     0x08009e09   Thumb Code   128  sconi.o(i._ZN5SCONI11GetStatusFAEv)
    SCONI::SetPosition(double, char)         0x08009e95   Thumb Code   252  sconi.o(i._ZN5SCONI11SetPositionEdc)
    SCONI::GetPositionA()                    0x08009f95   Thumb Code   124  sconi.o(i._ZN5SCONI12GetPositionAEv)
    SCONI::GetPositionB()                    0x0800a01d   Thumb Code   124  sconi.o(i._ZN5SCONI12GetPositionBEv)
    SCONI::GetPositionX()                    0x0800a0a5   Thumb Code   124  sconi.o(i._ZN5SCONI12GetPositionXEv)
    SCONI::GetPositionY()                    0x0800a12d   Thumb Code   124  sconi.o(i._ZN5SCONI12GetPositionYEv)
    SCONI::GetPositionZ()                    0x0800a1b5   Thumb Code   124  sconi.o(i._ZN5SCONI12GetPositionZEv)
    SCONI::GetStatusIDP()                    0x0800a23d   Thumb Code   112  sconi.o(i._ZN5SCONI12GetStatusIDPEv)
    SCONI::EnableStepper()                   0x0800a2b9   Thumb Code   120  sconi.o(i._ZN5SCONI13EnableStepperEv)
    SCONI::GetStatusBusy()                   0x0800a339   Thumb Code   114  sconi.o(i._ZN5SCONI13GetStatusBusyEv)
    SCONI::GetTestPointA()                   0x0800a3b5   Thumb Code   124  sconi.o(i._ZN5SCONI13GetTestPointAEv)
    SCONI::GetTestPointB()                   0x0800a43d   Thumb Code   124  sconi.o(i._ZN5SCONI13GetTestPointBEv)
    SCONI::GetTestPointC()                   0x0800a4c5   Thumb Code   124  sconi.o(i._ZN5SCONI13GetTestPointCEv)
    SCONI::GetTestPointD()                   0x0800a54d   Thumb Code   124  sconi.o(i._ZN5SCONI13GetTestPointDEv)
    SCONI::GetTestPointM()                   0x0800a5d5   Thumb Code   124  sconi.o(i._ZN5SCONI13GetTestPointMEv)
    SCONI::GetStatusHomed()                  0x0800a65d   Thumb Code   112  sconi.o(i._ZN5SCONI14GetStatusHomedEv)
    SCONI::SetNozzleState(unsigned char, unsigned char) 0x0800a6d9   Thumb Code   192  sconi.o(i._ZN5SCONI14SetNozzleStateEhh)
    SCONI::GetPositionXMax()                 0x0800a7a1   Thumb Code   124  sconi.o(i._ZN5SCONI15GetPositionXMaxEv)
    SCONI::GetPositionYMax()                 0x0800a829   Thumb Code   124  sconi.o(i._ZN5SCONI15GetPositionYMaxEv)
    SCONI::GetPositionZMax()                 0x0800a8b1   Thumb Code   124  sconi.o(i._ZN5SCONI15GetPositionZMaxEv)
    SCONI::GetStatusStepper()                0x0800a939   Thumb Code   112  sconi.o(i._ZN5SCONI16GetStatusStepperEv)
    SCONI::GetStatusLeveling()               0x0800a9b5   Thumb Code   128  sconi.o(i._ZN5SCONI17GetStatusLevelingEv)
    SCONI::Motion(double*, float)            0x0800aa41   Thumb Code   390  sconi.o(i._ZN5SCONI6MotionEPdf)
    SCONI::Chr2Flo(char*, unsigned, unsigned, bool) 0x0800abd5   Thumb Code   236  sconi.o(i._ZN5SCONI7Chr2FloEPcjjb)
    SCONI::Flo2Chr(char*, double, unsigned, unsigned, bool) 0x0800accd   Thumb Code   262  sconi.o(i._ZN5SCONI7Flo2ChrEPcdjjb)
    SCONI::GetL1Max()                        0x0800add9   Thumb Code   134  sconi.o(i._ZN5SCONI8GetL1MaxEv)
    SCONI::GetL2Max()                        0x0800ae6d   Thumb Code   134  sconi.o(i._ZN5SCONI8GetL2MaxEv)
    SCONI::MoveAxis(double, unsigned char)   0x0800af01   Thumb Code   258  sconi.o(i._ZN5SCONI8MoveAxisEdh)
    SCONI::TestLink()                        0x0800b009   Thumb Code   106  sconi.o(i._ZN5SCONI8TestLinkEv)
    SCONI::EnableIDP()                       0x0800b07d   Thumb Code   106  sconi.o(i._ZN5SCONI9EnableIDPEv)
    SCONI::GetL1Rest()                       0x0800b0f1   Thumb Code   134  sconi.o(i._ZN5SCONI9GetL1RestEv)
    SCONI::GetL2Rest()                       0x0800b185   Thumb Code   134  sconi.o(i._ZN5SCONI9GetL2RestEv)
    SHELL::Init()                            0x0800b219   Thumb Code    18  shell.o(i._ZN5SHELL4InitEv)
    SHELL::Flush()                           0x0800b22b   Thumb Code    22  shell.o(i._ZN5SHELL5FlushEv)
    SHELL::Match(char*, char*)               0x0800b241   Thumb Code   138  shell.o(i._ZN5SHELL5MatchEPcS0_)
    SHELL::Upper(char)                       0x0800b2cb   Thumb Code    22  shell.o(i._ZN5SHELL5UpperEc)
    SHELL::Chr2Num(char*)                    0x0800b2e1   Thumb Code    76  shell.o(i._ZN5SHELL7Chr2NumEPc)
    SHELL::Compare(char*, char*)             0x0800b331   Thumb Code    58  shell.o(i._ZN5SHELL7CompareEPcS0_)
    SHELL::Decoder()                         0x0800b36d   Thumb Code   776  shell.o(i._ZN5SHELL7DecoderEv)
    SHELL::GetWord(char*, char*, char&)      0x0800b8f5   Thumb Code   168  shell.o(i._ZN5SHELL7GetWordEPcS0_Rc)
    SHELL::DictInit()                        0x0800b99d   Thumb Code   254  shell.o(i._ZN5SHELL8DictInitEv)
    SHELL::IsLetter(char)                    0x0800bbbd   Thumb Code    30  shell.o(i._ZN5SHELL8IsLetterEc)
    SHELL::IsNumber(char)                    0x0800bbdb   Thumb Code    18  shell.o(i._ZN5SHELL8IsNumberEc)
    SHELL::GetNumber(char*, unsigned&)       0x0800bbed   Thumb Code   130  shell.o(i._ZN5SHELL9GetNumberEPcRj)
    TCONI::GetStatusBasePlane()              0x0800bc71   Thumb Code   110  tconi.o(i._ZN5TCONI18GetStatusBasePlaneEv)
    TCONI::GetStatusExtruderA()              0x0800bced   Thumb Code   110  tconi.o(i._ZN5TCONI18GetStatusExtruderAEv)
    TCONI::GetStatusExtruderB()              0x0800bd69   Thumb Code   110  tconi.o(i._ZN5TCONI18GetStatusExtruderBEv)
    TCONI::GetCoolerPowerExtruderA()         0x0800bde5   Thumb Code   132  tconi.o(i._ZN5TCONI23GetCoolerPowerExtruderAEv)
    TCONI::GetCoolerPowerExtruderB()         0x0800be75   Thumb Code   132  tconi.o(i._ZN5TCONI23GetCoolerPowerExtruderBEv)
    TCONI::GetHeaterPowerBasePlane()         0x0800bf05   Thumb Code   132  tconi.o(i._ZN5TCONI23GetHeaterPowerBasePlaneEv)
    TCONI::GetHeaterPowerExtruderA()         0x0800bf95   Thumb Code   132  tconi.o(i._ZN5TCONI23GetHeaterPowerExtruderAEv)
    TCONI::GetHeaterPowerExtruderB()         0x0800c025   Thumb Code   132  tconi.o(i._ZN5TCONI23GetHeaterPowerExtruderBEv)
    TCONI::GetTemperatureBPSetting()         0x0800c0b5   Thumb Code   132  tconi.o(i._ZN5TCONI23GetTemperatureBPSettingEv)
    TCONI::GetTemperatureBasePlane()         0x0800c145   Thumb Code   132  tconi.o(i._ZN5TCONI23GetTemperatureBasePlaneEv)
    TCONI::GetTemperatureEASetting()         0x0800c1d5   Thumb Code   132  tconi.o(i._ZN5TCONI23GetTemperatureEASettingEv)
    TCONI::GetTemperatureEBSetting()         0x0800c265   Thumb Code   132  tconi.o(i._ZN5TCONI23GetTemperatureEBSettingEv)
    TCONI::GetTemperatureExtruderA()         0x0800c2f5   Thumb Code   132  tconi.o(i._ZN5TCONI23GetTemperatureExtruderAEv)
    TCONI::GetTemperatureExtruderB()         0x0800c385   Thumb Code   132  tconi.o(i._ZN5TCONI23GetTemperatureExtruderBEv)
    TCONI::SetCoolerPowerExtruderA(unsigned char) 0x0800c415   Thumb Code   172  tconi.o(i._ZN5TCONI23SetCoolerPowerExtruderAEh)
    TCONI::SetCoolerPowerExtruderB(unsigned char) 0x0800c4c5   Thumb Code   172  tconi.o(i._ZN5TCONI23SetCoolerPowerExtruderBEh)
    TCONI::SetTemperatureBPSetting(unsigned short) 0x0800c575   Thumb Code   200  tconi.o(i._ZN5TCONI23SetTemperatureBPSettingEt)
    TCONI::SetTemperatureEASetting(unsigned short) 0x0800c641   Thumb Code   204  tconi.o(i._ZN5TCONI23SetTemperatureEASettingEt)
    TCONI::SetTemperatureEBSetting(unsigned short) 0x0800c711   Thumb Code   204  tconi.o(i._ZN5TCONI23SetTemperatureEBSettingEt)
    TCONI::GetTemperatureEnvironment()       0x0800c7e1   Thumb Code   132  tconi.o(i._ZN5TCONI25GetTemperatureEnvironmentEv)
    TCONI::Chr2Flo(char*, unsigned, unsigned, bool) 0x0800c871   Thumb Code   236  tconi.o(i._ZN5TCONI7Chr2FloEPcjjb)
    TCONI::Flo2Chr(char*, double, unsigned, unsigned, bool) 0x0800c969   Thumb Code   262  tconi.o(i._ZN5TCONI7Flo2ChrEPcdjjb)
    TCONI::TestLink()                        0x0800ca75   Thumb Code   106  tconi.o(i._ZN5TCONI8TestLinkEv)
    RTCLOCK::IIC_WaitAck()                   0x0800cae9   Thumb Code    76  rtclock.o(i._ZN7RTCLOCK11IIC_WaitAckEv)
    RTCLOCK::WriteEnable()                   0x0800cb35   Thumb Code    64  rtclock.o(i._ZN7RTCLOCK11WriteEnableEv)
    RTCLOCK::IIC_ReadByte(bool)              0x0800cb75   Thumb Code    92  rtclock.o(i._ZN7RTCLOCK12IIC_ReadByteEb)
    RTCLOCK::IIC_SendByte(unsigned char)     0x0800cbd1   Thumb Code    90  rtclock.o(i._ZN7RTCLOCK12IIC_SendByteEh)
    RTCLOCK::WriteDisable()                  0x0800cc2b   Thumb Code    64  rtclock.o(i._ZN7RTCLOCK12WriteDisableEv)
    RTCLOCK::Init()                          0x0800cc6d   Thumb Code    72  rtclock.o(i._ZN7RTCLOCK4InitEv)
    RTCLOCK::Read(unsigned char&, unsigned char) 0x0800ccbd   Thumb Code    60  rtclock.o(i._ZN7RTCLOCK4ReadERhh)
    RTCLOCK::Write(unsigned char, unsigned char) 0x0800ccf9   Thumb Code    84  rtclock.o(i._ZN7RTCLOCK5WriteEhh)
    RTCLOCK::DelayUs(unsigned char)          0x0800cd4d   Thumb Code    42  rtclock.o(i._ZN7RTCLOCK7DelayUsEh)
    RTCLOCK::GetTime()                       0x0800cd79   Thumb Code   386  rtclock.o(i._ZN7RTCLOCK7GetTimeEv)
    RTCLOCK::IIC_Ack()                       0x0800cf01   Thumb Code    46  rtclock.o(i._ZN7RTCLOCK7IIC_AckEv)
    RTCLOCK::IIC_Init()                      0x0800cf2f   Thumb Code    18  rtclock.o(i._ZN7RTCLOCK8IIC_InitEv)
    RTCLOCK::IIC_NAck()                      0x0800cf41   Thumb Code    46  rtclock.o(i._ZN7RTCLOCK8IIC_NAckEv)
    RTCLOCK::IIC_Stop()                      0x0800cf6f   Thumb Code    46  rtclock.o(i._ZN7RTCLOCK8IIC_StopEv)
    RTCLOCK::ReadData(unsigned char)         0x0800cf9d   Thumb Code    80  rtclock.o(i._ZN7RTCLOCK8ReadDataEh)
    RTCLOCK::IIC_Start()                     0x0800cfed   Thumb Code    46  rtclock.o(i._ZN7RTCLOCK9IIC_StartEv)
    RTCLOCK::WriteData(unsigned char, unsigned char) 0x0800d01b   Thumb Code    64  rtclock.o(i._ZN7RTCLOCK9WriteDataEhh)
    AUTOMATE::ClickCount()                   0x0800d05d   Thumb Code    28  automate.o(i._ZN8AUTOMATE10ClickCountEv)
    AUTOMATE::AUX1GetStatus()                0x0800d07d   Thumb Code    44  automate.o(i._ZN8AUTOMATE13AUX1GetStatusEv)
    AUTOMATE::FCONGetStatus()                0x0800d0b1   Thumb Code   124  automate.o(i._ZN8AUTOMATE13FCONGetStatusEv)
    AUTOMATE::SCONGetStatus()                0x0800d135   Thumb Code   130  automate.o(i._ZN8AUTOMATE13SCONGetStatusEv)
    AUTOMATE::TCONGetStatus()                0x0800d1c1   Thumb Code   124  automate.o(i._ZN8AUTOMATE13TCONGetStatusEv)
    AUTOMATE::InfoLCDRefreash()              0x0800d245   Thumb Code    44  automate.o(i._ZN8AUTOMATE15InfoLCDRefreashEv)
    AUTOMATE::InterpreterRound()             0x0800d279   Thumb Code    12  automate.o(i._ZN8AUTOMATE16InterpreterRoundEv)
    AUTOMATE::StatusBarRefresh()             0x0800d289   Thumb Code   846  automate.o(i._ZN8AUTOMATE16StatusBarRefreshEv)
    AUTOMATE::ConsoleGetCommand()            0x0800d5f5   Thumb Code    48  automate.o(i._ZN8AUTOMATE17ConsoleGetCommandEv)
    AUTOMATE::RTCGetStatusCount()            0x0800d631   Thumb Code    24  automate.o(i._ZN8AUTOMATE17RTCGetStatusCountEv)
    AUTOMATE::AUX1GetStatusCount()           0x0800d649   Thumb Code    24  automate.o(i._ZN8AUTOMATE18AUX1GetStatusCountEv)
    AUTOMATE::FCONGetStatusCount()           0x0800d661   Thumb Code    22  automate.o(i._ZN8AUTOMATE18FCONGetStatusCountEv)
    AUTOMATE::SCONGetStatusCount()           0x0800d677   Thumb Code    22  automate.o(i._ZN8AUTOMATE18SCONGetStatusCountEv)
    AUTOMATE::TCONGetStatusCount()           0x0800d68d   Thumb Code    22  automate.o(i._ZN8AUTOMATE18TCONGetStatusCountEv)
    AUTOMATE::InfoLCDRefreashCount()         0x0800d6a3   Thumb Code    22  automate.o(i._ZN8AUTOMATE20InfoLCDRefreashCountEv)
    AUTOMATE::InterpreterRoundCount()        0x0800d6b9   Thumb Code    24  automate.o(i._ZN8AUTOMATE21InterpreterRoundCountEv)
    AUTOMATE::ConsoleGetCommandCount()       0x0800d6d1   Thumb Code    24  automate.o(i._ZN8AUTOMATE22ConsoleGetCommandCountEv)
    AUTOMATE::Init()                         0x0800d6e9   Thumb Code    98  automate.o(i._ZN8AUTOMATE4InitEv)
    AUTOMATE::Checking(unsigned char)        0x0800d75d   Thumb Code   166  automate.o(i._ZN8AUTOMATE8CheckingEh)
    main                                     0x0800d805   Thumb Code    90  main.o(i.main)
    __aeabi_d2f                              0x0800d885   Thumb Code     0  d2f.o(x$fpl$d2f)
    _d2f                                     0x0800d885   Thumb Code    98  d2f.o(x$fpl$d2f)
    __aeabi_dadd                             0x0800d8e9   Thumb Code     0  daddsub_clz.o(x$fpl$dadd)
    _dadd                                    0x0800d8e9   Thumb Code   332  daddsub_clz.o(x$fpl$dadd)
    __fpl_dcmp_Inf                           0x0800da39   Thumb Code    24  dcmpi.o(x$fpl$dcmpinf)
    __aeabi_ddiv                             0x0800da51   Thumb Code     0  ddiv.o(x$fpl$ddiv)
    _ddiv                                    0x0800da51   Thumb Code   552  ddiv.o(x$fpl$ddiv)
    __aeabi_d2uiz                            0x0800dd01   Thumb Code     0  dfixu.o(x$fpl$dfixu)
    _dfixu                                   0x0800dd01   Thumb Code    90  dfixu.o(x$fpl$dfixu)
    __aeabi_i2d                              0x0800dd5b   Thumb Code     0  dflt_clz.o(x$fpl$dflt)
    _dflt                                    0x0800dd5b   Thumb Code    46  dflt_clz.o(x$fpl$dflt)
    __aeabi_l2d                              0x0800dd89   Thumb Code     0  dfltll_clz.o(x$fpl$dfltll)
    _ll_sto_d                                0x0800dd89   Thumb Code   162  dfltll_clz.o(x$fpl$dfltll)
    __aeabi_ui2d                             0x0800de2b   Thumb Code     0  dflt_clz.o(x$fpl$dfltu)
    _dfltu                                   0x0800de2b   Thumb Code    38  dflt_clz.o(x$fpl$dfltu)
    __aeabi_cdcmple                          0x0800de51   Thumb Code     0  dleqf.o(x$fpl$dleqf)
    _dcmple                                  0x0800de51   Thumb Code   120  dleqf.o(x$fpl$dleqf)
    __fpl_dcmple_InfNaN                      0x0800deb3   Thumb Code     0  dleqf.o(x$fpl$dleqf)
    __aeabi_dmul                             0x0800dec9   Thumb Code     0  dmul.o(x$fpl$dmul)
    _dmul                                    0x0800dec9   Thumb Code   332  dmul.o(x$fpl$dmul)
    __fpl_dnaninf                            0x0800e01d   Thumb Code   156  dnaninf.o(x$fpl$dnaninf)
    __fpl_dretinf                            0x0800e0b9   Thumb Code    12  dretinf.o(x$fpl$dretinf)
    __aeabi_cdrcmple                         0x0800e0c5   Thumb Code     0  drleqf.o(x$fpl$drleqf)
    _drcmple                                 0x0800e0c5   Thumb Code   108  drleqf.o(x$fpl$drleqf)
    __aeabi_dsub                             0x0800e131   Thumb Code     0  daddsub_clz.o(x$fpl$dsub)
    _dsub                                    0x0800e131   Thumb Code   464  daddsub_clz.o(x$fpl$dsub)
    __aeabi_f2d                              0x0800e305   Thumb Code     0  f2d.o(x$fpl$f2d)
    _f2d                                     0x0800e305   Thumb Code    86  f2d.o(x$fpl$f2d)
    __fpl_fcmp_Inf                           0x0800e35b   Thumb Code    24  fcmpi.o(x$fpl$fcmpinf)
    __aeabi_fdiv                             0x0800e375   Thumb Code     0  fdiv.o(x$fpl$fdiv)
    _fdiv                                    0x0800e375   Thumb Code   384  fdiv.o(x$fpl$fdiv)
    __aeabi_cfcmple                          0x0800e4f9   Thumb Code     0  fleqf.o(x$fpl$fleqf)
    _fcmple                                  0x0800e4f9   Thumb Code   104  fleqf.o(x$fpl$fleqf)
    __fpl_fcmple_InfNaN                      0x0800e54b   Thumb Code     0  fleqf.o(x$fpl$fleqf)
    __fpl_fnaninf                            0x0800e561   Thumb Code   140  fnaninf.o(x$fpl$fnaninf)
    __fpl_fretinf                            0x0800e5ed   Thumb Code    10  fretinf.o(x$fpl$fretinf)
    __aeabi_cfrcmple                         0x0800e5f7   Thumb Code     0  frleqf.o(x$fpl$frleqf)
    _frcmple                                 0x0800e5f7   Thumb Code    98  frleqf.o(x$fpl$frleqf)
    __aeabi_d2lz                             0x0800e659   Thumb Code     0  dfixll.o(x$fpl$llsfromd)
    _ll_sfrom_d                              0x0800e659   Thumb Code   194  dfixll.o(x$fpl$llsfromd)
    __I$use$fp                               0x0800e71a   Number         0  usenofp.o(x$fpl$usenofp)
    Region$$Table$$Base                      0x0800e7e0   Number         0  anon$$obj.o(Region$$Table)
    Region$$Table$$Limit                     0x0800e800   Number         0  anon$$obj.o(Region$$Table)
    Sconi                                    0x20000008   Data           1  sconi.o(.data)
    Tconi                                    0x200000d0   Data           1  tconi.o(.data)
    Fconi                                    0x20000198   Data           1  fconi.o(.data)
    Cconi                                    0x200001a0   Data           1  cconi.o(.data)
    AuxIO                                    0x20000268   Data           1  auxio.o(.data)
    Instruct                                 0x200002d0   Data           1  instruction.o(.data)
    RTClock                                  0x20000450   Data           1  rtclock.o(.data)
    Automate                                 0x20000454   Data          68  automate.o(.bss)
    Cbus                                     0x20000498   Data         260  cbus.o(.bss)
    Ibus                                     0x2000059c   Data         514  ibus.o(.bss)
    Abus                                     0x2000079e   Data         516  abus.o(.bss)
    Status                                   0x200009a8   Data         288  status.o(.bss)
    Shell                                    0x20000ac8   Data        3336  shell.o(.bss)
    Interpreter                              0x20001858   Data        3496  interpreter.o(.bss)
    __libspace_start                         0x20002600   Data          96  libspace.o(.bss)
    __temporary_stack_top$libspace           0x20002660   Data           0  libspace.o(.bss)



==============================================================================

Memory Map of the image

  Image Entry point : 0x080000ed

  Load Region LR_IROM1 (Base: 0x08000000, Size: 0x0000ec54, Max: 0x00010000, ABSOLUTE, COMPRESSED[0x0000e8d4])

    Execution Region ER_IROM1 (Base: 0x08000000, Size: 0x0000e800, Max: 0x00010000, ABSOLUTE)

    Base Addr    Size         Type   Attr      Idx    E Section Name        Object

    0x08000000   0x000000ec   Data   RO         1857    RESET               startup_stm32f10x_md.o
    0x080000ec   0x00000008   Code   RO         1943  * !!!main             c_w.l(__main.o)
    0x080000f4   0x00000034   Code   RO         2171    !!!scatter          c_w.l(__scatter.o)
    0x08000128   0x00000064   Code   RO         2169    !!dclz77c           c_w.l(__dclz77c.o)
    0x0800018c   0x0000001c   Code   RO         2173    !!handler_zi        c_w.l(__scatter_zi.o)
    0x080001a8   0x00000002   Code   RO         2039    .ARM.Collect$$libinit$$00000000  c_w.l(libinit.o)
    0x080001aa   0x00000000   Code   RO         2052    .ARM.Collect$$libinit$$00000002  c_w.l(libinit2.o)
    0x080001aa   0x00000000   Code   RO         2054    .ARM.Collect$$libinit$$00000004  c_w.l(libinit2.o)
    0x080001aa   0x00000000   Code   RO         2057    .ARM.Collect$$libinit$$0000000A  c_w.l(libinit2.o)
    0x080001aa   0x00000000   Code   RO         2059    .ARM.Collect$$libinit$$0000000C  c_w.l(libinit2.o)
    0x080001aa   0x00000000   Code   RO         2061    .ARM.Collect$$libinit$$0000000E  c_w.l(libinit2.o)
    0x080001aa   0x00000000   Code   RO         2064    .ARM.Collect$$libinit$$00000011  c_w.l(libinit2.o)
    0x080001aa   0x00000000   Code   RO         2066    .ARM.Collect$$libinit$$00000013  c_w.l(libinit2.o)
    0x080001aa   0x00000000   Code   RO         2068    .ARM.Collect$$libinit$$00000015  c_w.l(libinit2.o)
    0x080001aa   0x00000000   Code   RO         2070    .ARM.Collect$$libinit$$00000017  c_w.l(libinit2.o)
    0x080001aa   0x00000000   Code   RO         2072    .ARM.Collect$$libinit$$00000019  c_w.l(libinit2.o)
    0x080001aa   0x00000000   Code   RO         2074    .ARM.Collect$$libinit$$0000001B  c_w.l(libinit2.o)
    0x080001aa   0x00000000   Code   RO         2076    .ARM.Collect$$libinit$$0000001D  c_w.l(libinit2.o)
    0x080001aa   0x00000000   Code   RO         2078    .ARM.Collect$$libinit$$0000001F  c_w.l(libinit2.o)
    0x080001aa   0x00000000   Code   RO         2080    .ARM.Collect$$libinit$$00000021  c_w.l(libinit2.o)
    0x080001aa   0x00000000   Code   RO         2082    .ARM.Collect$$libinit$$00000023  c_w.l(libinit2.o)
    0x080001aa   0x00000000   Code   RO         2084    .ARM.Collect$$libinit$$00000025  c_w.l(libinit2.o)
    0x080001aa   0x00000000   Code   RO         2088    .ARM.Collect$$libinit$$0000002C  c_w.l(libinit2.o)
    0x080001aa   0x00000000   Code   RO         2090    .ARM.Collect$$libinit$$0000002E  c_w.l(libinit2.o)
    0x080001aa   0x00000000   Code   RO         2092    .ARM.Collect$$libinit$$00000030  c_w.l(libinit2.o)
    0x080001aa   0x00000000   Code   RO         2094    .ARM.Collect$$libinit$$00000032  c_w.l(libinit2.o)
    0x080001aa   0x00000002   Code   RO         2095    .ARM.Collect$$libinit$$00000033  c_w.l(libinit2.o)
    0x080001ac   0x00000002   Code   RO         2126    .ARM.Collect$$libshutdown$$00000000  c_w.l(libshutdown.o)
    0x080001ae   0x00000000   Code   RO         2152    .ARM.Collect$$libshutdown$$00000002  c_w.l(libshutdown2.o)
    0x080001ae   0x00000000   Code   RO         2154    .ARM.Collect$$libshutdown$$00000004  c_w.l(libshutdown2.o)
    0x080001ae   0x00000000   Code   RO         2157    .ARM.Collect$$libshutdown$$00000007  c_w.l(libshutdown2.o)
    0x080001ae   0x00000000   Code   RO         2160    .ARM.Collect$$libshutdown$$0000000A  c_w.l(libshutdown2.o)
    0x080001ae   0x00000000   Code   RO         2162    .ARM.Collect$$libshutdown$$0000000C  c_w.l(libshutdown2.o)
    0x080001ae   0x00000000   Code   RO         2165    .ARM.Collect$$libshutdown$$0000000F  c_w.l(libshutdown2.o)
    0x080001ae   0x00000002   Code   RO         2166    .ARM.Collect$$libshutdown$$00000010  c_w.l(libshutdown2.o)
    0x080001b0   0x00000000   Code   RO         1991    .ARM.Collect$$rtentry$$00000000  c_w.l(__rtentry.o)
    0x080001b0   0x00000000   Code   RO         2010    .ARM.Collect$$rtentry$$00000002  c_w.l(__rtentry2.o)
    0x080001b0   0x00000006   Code   RO         2022    .ARM.Collect$$rtentry$$00000004  c_w.l(__rtentry4.o)
    0x080001b6   0x00000000   Code   RO         2012    .ARM.Collect$$rtentry$$00000009  c_w.l(__rtentry2.o)
    0x080001b6   0x00000004   Code   RO         2013    .ARM.Collect$$rtentry$$0000000A  c_w.l(__rtentry2.o)
    0x080001ba   0x00000000   Code   RO         2015    .ARM.Collect$$rtentry$$0000000C  c_w.l(__rtentry2.o)
    0x080001ba   0x00000008   Code   RO         2016    .ARM.Collect$$rtentry$$0000000D  c_w.l(__rtentry2.o)
    0x080001c2   0x00000002   Code   RO         2043    .ARM.Collect$$rtexit$$00000000  c_w.l(rtexit.o)
    0x080001c4   0x00000000   Code   RO         2099    .ARM.Collect$$rtexit$$00000002  c_w.l(rtexit2.o)
    0x080001c4   0x00000004   Code   RO         2100    .ARM.Collect$$rtexit$$00000003  c_w.l(rtexit2.o)
    0x080001c8   0x00000006   Code   RO         2101    .ARM.Collect$$rtexit$$00000004  c_w.l(rtexit2.o)
    0x080001ce   0x00000002   PAD
    0x080001d0   0x00000040   Code   RO         1858    .text               startup_stm32f10x_md.o
    0x08000210   0x000000ee   Code   RO         1933    .text               c_w.l(lludivv7m.o)
    0x080002fe   0x00000048   Code   RO         1935    .text               c_w.l(llsdiv.o)
    0x08000346   0x00000064   Code   RO         1937    .text               c_w.l(rt_memcpy_w.o)
    0x080003aa   0x0000004e   Code   RO         1939    .text               c_w.l(rt_memclr_w.o)
    0x080003f8   0x00000006   Code   RO         1941    .text               c_w.l(heapauxi.o)
    0x080003fe   0x0000004a   Code   RO         2026    .text               c_w.l(sys_stackheap_outer.o)
    0x08000448   0x00000012   Code   RO         2028    .text               c_w.l(exit.o)
    0x0800045a   0x00000002   PAD
    0x0800045c   0x00000008   Code   RO         2040    .text               c_w.l(libspace.o)
    0x08000464   0x0000000c   Code   RO         2096    .text               c_w.l(sys_exit.o)
    0x08000470   0x00000002   Code   RO         2115    .text               c_w.l(use_no_semi.o)
    0x08000472   0x00000000   Code   RO         2117    .text               c_w.l(indicate_semi.o)
    0x08000472   0x00000008   Code   RO         1865    i.SetSysClock       system_stm32f10x.o
    0x0800047a   0x00000002   PAD
    0x0800047c   0x000000e0   Code   RO         1866    i.SetSysClockTo72   system_stm32f10x.o
    0x0800055c   0x00000060   Code   RO         1868    i.SystemInit        system_stm32f10x.o
    0x080005bc   0x00000058   Code   RO           93    i.TIM3_IRQHandler   automate.o
    0x08000614   0x0000009c   Code   RO         1077    i.USART1_IRQHandler  abus.o
    0x080006b0   0x00000098   Code   RO          750    i.USART2_IRQHandler  ibus.o
    0x08000748   0x00000094   Code   RO          269    i.USART3_IRQHandler  cbus.o
    0x080007dc   0x00000018   Code   RO         1840    i._Z10IIC_GetSDAv   rtclock.o
    0x080007f4   0x00000028   Code   RO         1833    i._Z7IIC_SCLb       rtclock.o
    0x0800081c   0x00000028   Code   RO         1826    i._Z7IIC_SDAb       rtclock.o
    0x08000844   0x00000034   Code   RO            4    i._Z8Delay_Msj      main.o
    0x08000878   0x00000110   Code   RO         1335    i._ZN11INSTRUCTION10DisableIDPEv  instruction.o
    0x08000988   0x00000194   Code   RO         1336    i._ZN11INSTRUCTION10SetColExtAEj  instruction.o
    0x08000b1c   0x00000194   Code   RO         1337    i._ZN11INSTRUCTION10SetColExtBEj  instruction.o
    0x08000cb0   0x00000254   Code   RO         1338    i._ZN11INSTRUCTION10SetTemExtAEj  instruction.o
    0x08000f04   0x00000254   Code   RO         1339    i._ZN11INSTRUCTION10SetTemExtBEj  instruction.o
    0x08001158   0x00000040   Code   RO         1340    i._ZN11INSTRUCTION11RefreshDictEv  instruction.o
    0x08001198   0x0000022c   Code   RO         1341    i._ZN11INSTRUCTION11StorageInfoEv  instruction.o
    0x080013c4   0x0000025c   Code   RO         1342    i._ZN11INSTRUCTION11WarningInfoEv  instruction.o
    0x08001620   0x000002e8   Code   RO         1343    i._ZN11INSTRUCTION13EnableNozzleAEv  instruction.o
    0x08001908   0x000002e8   Code   RO         1344    i._ZN11INSTRUCTION13EnableNozzleBEv  instruction.o
    0x08001bf0   0x00000174   Code   RO         1345    i._ZN11INSTRUCTION13EnableStepperEv  instruction.o
    0x08001d64   0x000002e8   Code   RO         1346    i._ZN11INSTRUCTION14DisableNozzleAEv  instruction.o
    0x0800204c   0x000002e8   Code   RO         1347    i._ZN11INSTRUCTION14DisableNozzleBEv  instruction.o
    0x08002334   0x00000084   Code   RO         1348    i._ZN11INSTRUCTION14ReloadFilamentEv  instruction.o
    0x080023b8   0x000000e8   Code   RO         1349    i._ZN11INSTRUCTION15EnableMainLightEv  instruction.o
    0x080024a0   0x000000e8   Code   RO         1350    i._ZN11INSTRUCTION16DisableMainLightEv  instruction.o
    0x08002588   0x00000138   Code   RO         1351    i._ZN11INSTRUCTION17ManufacturingInfoEv  instruction.o
    0x080026c0   0x00000084   Code   RO         1352    i._ZN11INSTRUCTION17StopManufacturingEv  instruction.o
    0x08002744   0x00000084   Code   RO         1353    i._ZN11INSTRUCTION18PauseManufacturingEv  instruction.o
    0x080027c8   0x000001e0   Code   RO         1354    i._ZN11INSTRUCTION18StartManufacturingEv  instruction.o
    0x080029a8   0x00000104   Code   RO         1355    i._ZN11INSTRUCTION19ManufacturingReportEv  instruction.o
    0x08002aac   0x000000e4   Code   RO         1356    i._ZN11INSTRUCTION19ResumeManufacturingEv  instruction.o
    0x08002b90   0x000000e8   Code   RO         1357    i._ZN11INSTRUCTION20EnableAuxiliaryLightEv  instruction.o
    0x08002c78   0x000000e8   Code   RO         1358    i._ZN11INSTRUCTION21DisableAuxiliaryLightEv  instruction.o
    0x08002d60   0x0000008c   Code   RO         1359    i._ZN11INSTRUCTION7Num2ChrEPcj  instruction.o
    0x08002dec   0x0000048c   Code   RO         1360    i._ZN11INSTRUCTION8AutoHomeEv  instruction.o
    0x08003278   0x00000030   Code   RO         1361    i._ZN11INSTRUCTION8NotFoundEv  instruction.o
    0x080032a8   0x0000002c   Code   RO         1362    i._ZN11INSTRUCTION8PrintNumEj  instruction.o
    0x080032d4   0x00000250   Code   RO         1363    i._ZN11INSTRUCTION8SetTemBPEj  instruction.o
    0x08003524   0x00000110   Code   RO         1364    i._ZN11INSTRUCTION9EnableIDPEv  instruction.o
    0x08003634   0x000004c4   Code   RO         1365    i._ZN11INSTRUCTION9ErrorInfoEv  instruction.o
    0x08003af8   0x000002f4   Code   RO         1366    i._ZN11INSTRUCTION9MoveAxisXEj  instruction.o
    0x08003dec   0x000002f4   Code   RO         1367    i._ZN11INSTRUCTION9MoveAxisYEj  instruction.o
    0x080040e0   0x000002f4   Code   RO         1368    i._ZN11INSTRUCTION9MoveAxisZEj  instruction.o
    0x080043d4   0x0000000e   Code   RO         1564    i._ZN11INTERPRETER10AbsDecimalEi  interpreter.o
    0x080043e2   0x00000002   PAD
    0x080043e4   0x000000b0   Code   RO         1565    i._ZN11INTERPRETER11StatusCheckEv  interpreter.o
    0x08004494   0x00000130   Code   RO         1566    i._ZN11INTERPRETER12CharToDoubleEPh  interpreter.o
    0x080045c4   0x00001c60   Code   RO         1567    i._ZN11INTERPRETER12LocalAnalyseEv  interpreter.o
    0x08006224   0x00000080   Code   RO         1568    i._ZN11INTERPRETER13CharToDecimalEPh  interpreter.o
    0x080062a4   0x0000049c   Code   RO         1569    i._ZN11INTERPRETER14GetInstructionEv  interpreter.o
    0x08006740   0x00000180   Code   RO         1570    i._ZN11INTERPRETER4InitEv  interpreter.o
    0x080068c0   0x00000016   Code   RO         1571    i._ZN11INTERPRETER4StopEv  interpreter.o
    0x080068d6   0x00000046   Code   RO         1572    i._ZN11INTERPRETER4TickEv  interpreter.o
    0x0800691c   0x00000016   Code   RO         1573    i._ZN11INTERPRETER5PauseEv  interpreter.o
    0x08006932   0x00000002   PAD
    0x08006934   0x00000180   Code   RO         1574    i._ZN11INTERPRETER5ResetEv  interpreter.o
    0x08006ab4   0x00000864   Code   RO         1575    i._ZN11INTERPRETER5RoundEv  interpreter.o
    0x08007318   0x00000032   Code   RO         1576    i._ZN11INTERPRETER5StartEv  interpreter.o
    0x0800734a   0x00000016   Code   RO         1577    i._ZN11INTERPRETER6ReLoadEv  interpreter.o
    0x08007360   0x0000002a   Code   RO         1578    i._ZN11INTERPRETER6ResumeEv  interpreter.o
    0x0800738a   0x00000002   PAD
    0x0800738c   0x00000ba4   Code   RO         1579    i._ZN11INTERPRETER7ProcessEv  interpreter.o
    0x08007f30   0x00000100   Code   RO         1580    i._ZN11INTERPRETER8PreCheckEv  interpreter.o
    0x08008030   0x0000003e   Code   RO         1582    i._ZN11INTERPRETER9AxisRoundERdd  interpreter.o
    0x0800806e   0x00000002   PAD
    0x08008070   0x00000058   Code   RO         1078    i._ZN4ABUS14WaitForReceiveEj  abus.o
    0x080080c8   0x0000000e   Code   RO         1079    i._ZN4ABUS17TestIfVerifyErrorEv  abus.o
    0x080080d6   0x00000002   PAD
    0x080080d8   0x0000001c   Code   RO         1080    i._ZN4ABUS2TxEh     abus.o
    0x080080f4   0x000000c8   Code   RO         1081    i._ZN4ABUS4InitEv   abus.o
    0x080081bc   0x0000003a   Code   RO         1082    i._ZN4ABUS5PrintEPc  abus.o
    0x080081f6   0x00000042   Code   RO         1083    i._ZN4ABUS8TransmitEcPcj  abus.o
    0x08008238   0x0000003e   Code   RO         1084    i._ZN4ABUS9TestReplyEc  abus.o
    0x08008276   0x00000002   PAD
    0x08008278   0x00000058   Code   RO          270    i._ZN4CBUS14WaitForReceiveEj  cbus.o
    0x080082d0   0x0000000e   Code   RO          271    i._ZN4CBUS17TestIfVerifyErrorEv  cbus.o
    0x080082de   0x00000002   PAD
    0x080082e0   0x0000001c   Code   RO          272    i._ZN4CBUS2TxEh     cbus.o
    0x080082fc   0x000000c8   Code   RO          273    i._ZN4CBUS4InitEv   cbus.o
    0x080083c4   0x0000003a   Code   RO          274    i._ZN4CBUS5PrintEPc  cbus.o
    0x080083fe   0x00000042   Code   RO          275    i._ZN4CBUS8TransmitEcPcj  cbus.o
    0x08008440   0x00000038   Code   RO          276    i._ZN4CBUS9TestReplyEc  cbus.o
    0x08008478   0x00000058   Code   RO          751    i._ZN4IBUS14WaitForReceiveEj  ibus.o
    0x080084d0   0x0000000e   Code   RO          752    i._ZN4IBUS17TestIfVerifyErrorEv  ibus.o
    0x080084de   0x00000002   PAD
    0x080084e0   0x0000001c   Code   RO          753    i._ZN4IBUS2TxEh     ibus.o
    0x080084fc   0x000000c0   Code   RO          754    i._ZN4IBUS4InitEv   ibus.o
    0x080085bc   0x0000003a   Code   RO          755    i._ZN4IBUS5PrintEPc  ibus.o
    0x080085f6   0x00000042   Code   RO          756    i._ZN4IBUS8TransmitEcPcj  ibus.o
    0x08008638   0x0000003e   Code   RO          757    i._ZN4IBUS9TestReplyEc  ibus.o
    0x08008676   0x00000002   PAD
    0x08008678   0x00000090   Code   RO         1150    i._ZN5AUXIO18GetStatusMaterialAEv  auxio.o
    0x08008708   0x00000090   Code   RO         1151    i._ZN5AUXIO18GetStatusMaterialBEv  auxio.o
    0x08008798   0x00000090   Code   RO         1152    i._ZN5AUXIO18SetStatusMainLightEb  auxio.o
    0x08008828   0x00000090   Code   RO         1153    i._ZN5AUXIO23SetStatusAuxiliaryLightEb  auxio.o
    0x080088b8   0x00000078   Code   RO         1154    i._ZN5AUXIO8TestLinkEv  auxio.o
    0x08008930   0x000000a8   Code   RO          980    i._ZN5CCONI10GetCommandEv  cconi.o
    0x080089d8   0x000000c0   Code   RO          981    i._ZN5CCONI12SetStatusBarEv  cconi.o
    0x08008a98   0x00000080   Code   RO          982    i._ZN5CCONI13HangUpConsoleEv  cconi.o
    0x08008b18   0x000002b8   Code   RO          983    i._ZN5CCONI13SetInfoScreenEv  cconi.o
    0x08008dd0   0x000000f0   Code   RO          984    i._ZN5CCONI14ConsoleDisplayEPcb  cconi.o
    0x08008ec0   0x000000c4   Code   RO          985    i._ZN5CCONI16ExpandDictionaryEPc  cconi.o
    0x08008f84   0x00000038   Code   RO          990    i._ZN5CCONI7Num2ChrEjPc  cconi.o
    0x08008fbc   0x00000078   Code   RO          991    i._ZN5CCONI8TestLinkEv  cconi.o
    0x08009034   0x000000cc   Code   RO          823    i._ZN5FCONI11GetFileNameEv  fconi.o
    0x08009100   0x000000b0   Code   RO          824    i._ZN5FCONI11GetFileSizeEv  fconi.o
    0x080091b0   0x00000048   Code   RO          825    i._ZN5FCONI12CharToNumberEhPh  fconi.o
    0x080091f8   0x000000cc   Code   RO          826    i._ZN5FCONI12FileReadLineEhPh  fconi.o
    0x080092c4   0x000000b0   Code   RO          827    i._ZN5FCONI12GetFileInfo1Ev  fconi.o
    0x08009374   0x000000b0   Code   RO          828    i._ZN5FCONI12GetFileInfo2Ev  fconi.o
    0x08009424   0x000000b0   Code   RO          829    i._ZN5FCONI12GetFileInfo3Ev  fconi.o
    0x080094d4   0x000000b0   Code   RO          830    i._ZN5FCONI12GetFileInfo4Ev  fconi.o
    0x08009584   0x000000b0   Code   RO          831    i._ZN5FCONI12GetFileInfo5Ev  fconi.o
    0x08009634   0x000000b0   Code   RO          832    i._ZN5FCONI12GetFileInfo6Ev  fconi.o
    0x080096e4   0x000000b0   Code   RO          834    i._ZN5FCONI13GetRestVolumeEv  fconi.o
    0x08009794   0x000000b0   Code   RO          835    i._ZN5FCONI14GetFilePointerEv  fconi.o
    0x08009844   0x000000b0   Code   RO          836    i._ZN5FCONI14GetTotalVolumeEv  fconi.o
    0x080098f4   0x000000b0   Code   RO          838    i._ZN5FCONI19GetFileEstimateTimeEv  fconi.o
    0x080099a4   0x000000b0   Code   RO          839    i._ZN5FCONI20GetFileCommandNumberEv  fconi.o
    0x08009a54   0x000000b0   Code   RO          840    i._ZN5FCONI20GetFileTotalDistanceEv  fconi.o
    0x08009b04   0x000000c8   Code   RO          841    i._ZN5FCONI8FileOpenEv  fconi.o
    0x08009bcc   0x000000c8   Code   RO          843    i._ZN5FCONI8FileTestEv  fconi.o
    0x08009c94   0x00000078   Code   RO          844    i._ZN5FCONI8TestLinkEv  fconi.o
    0x08009d0c   0x00000088   Code   RO          342    i._ZN5SCONI10AutoHomingEv  sconi.o
    0x08009d94   0x00000074   Code   RO          343    i._ZN5SCONI10DisableIDPEv  sconi.o
    0x08009e08   0x0000008c   Code   RO          344    i._ZN5SCONI11GetStatusFAEv  sconi.o
    0x08009e94   0x00000100   Code   RO          345    i._ZN5SCONI11SetPositionEdc  sconi.o
    0x08009f94   0x00000088   Code   RO          346    i._ZN5SCONI12GetPositionAEv  sconi.o
    0x0800a01c   0x00000088   Code   RO          347    i._ZN5SCONI12GetPositionBEv  sconi.o
    0x0800a0a4   0x00000088   Code   RO          348    i._ZN5SCONI12GetPositionXEv  sconi.o
    0x0800a12c   0x00000088   Code   RO          349    i._ZN5SCONI12GetPositionYEv  sconi.o
    0x0800a1b4   0x00000088   Code   RO          350    i._ZN5SCONI12GetPositionZEv  sconi.o
    0x0800a23c   0x0000007c   Code   RO          351    i._ZN5SCONI12GetStatusIDPEv  sconi.o
    0x0800a2b8   0x00000080   Code   RO          353    i._ZN5SCONI13EnableStepperEv  sconi.o
    0x0800a338   0x0000007c   Code   RO          354    i._ZN5SCONI13GetStatusBusyEv  sconi.o
    0x0800a3b4   0x00000088   Code   RO          355    i._ZN5SCONI13GetTestPointAEv  sconi.o
    0x0800a43c   0x00000088   Code   RO          356    i._ZN5SCONI13GetTestPointBEv  sconi.o
    0x0800a4c4   0x00000088   Code   RO          357    i._ZN5SCONI13GetTestPointCEv  sconi.o
    0x0800a54c   0x00000088   Code   RO          358    i._ZN5SCONI13GetTestPointDEv  sconi.o
    0x0800a5d4   0x00000088   Code   RO          359    i._ZN5SCONI13GetTestPointMEv  sconi.o
    0x0800a65c   0x0000007c   Code   RO          360    i._ZN5SCONI14GetStatusHomedEv  sconi.o
    0x0800a6d8   0x000000c8   Code   RO          361    i._ZN5SCONI14SetNozzleStateEhh  sconi.o
    0x0800a7a0   0x00000088   Code   RO          362    i._ZN5SCONI15GetPositionXMaxEv  sconi.o
    0x0800a828   0x00000088   Code   RO          363    i._ZN5SCONI15GetPositionYMaxEv  sconi.o
    0x0800a8b0   0x00000088   Code   RO          364    i._ZN5SCONI15GetPositionZMaxEv  sconi.o
    0x0800a938   0x0000007c   Code   RO          367    i._ZN5SCONI16GetStatusStepperEv  sconi.o
    0x0800a9b4   0x0000008c   Code   RO          368    i._ZN5SCONI17GetStatusLevelingEv  sconi.o
    0x0800aa40   0x00000194   Code   RO          369    i._ZN5SCONI6MotionEPdf  sconi.o
    0x0800abd4   0x000000f8   Code   RO          370    i._ZN5SCONI7Chr2FloEPcjjb  sconi.o
    0x0800accc   0x0000010c   Code   RO          371    i._ZN5SCONI7Flo2ChrEPcdjjb  sconi.o
    0x0800add8   0x00000094   Code   RO          372    i._ZN5SCONI8GetL1MaxEv  sconi.o
    0x0800ae6c   0x00000094   Code   RO          373    i._ZN5SCONI8GetL2MaxEv  sconi.o
    0x0800af00   0x00000108   Code   RO          374    i._ZN5SCONI8MoveAxisEdh  sconi.o
    0x0800b008   0x00000074   Code   RO          375    i._ZN5SCONI8TestLinkEv  sconi.o
    0x0800b07c   0x00000074   Code   RO          376    i._ZN5SCONI9EnableIDPEv  sconi.o
    0x0800b0f0   0x00000094   Code   RO          377    i._ZN5SCONI9GetL1RestEv  sconi.o
    0x0800b184   0x00000094   Code   RO          378    i._ZN5SCONI9GetL2RestEv  sconi.o
    0x0800b218   0x00000012   Code   RO         1228    i._ZN5SHELL4InitEv  shell.o
    0x0800b22a   0x00000016   Code   RO         1229    i._ZN5SHELL5FlushEv  shell.o
    0x0800b240   0x0000008a   Code   RO         1230    i._ZN5SHELL5MatchEPcS0_  shell.o
    0x0800b2ca   0x00000016   Code   RO         1231    i._ZN5SHELL5UpperEc  shell.o
    0x0800b2e0   0x00000050   Code   RO         1233    i._ZN5SHELL7Chr2NumEPc  shell.o
    0x0800b330   0x0000003a   Code   RO         1234    i._ZN5SHELL7CompareEPcS0_  shell.o
    0x0800b36a   0x00000002   PAD
    0x0800b36c   0x00000588   Code   RO         1235    i._ZN5SHELL7DecoderEv  shell.o
    0x0800b8f4   0x000000a8   Code   RO         1236    i._ZN5SHELL7GetWordEPcS0_Rc  shell.o
    0x0800b99c   0x00000220   Code   RO         1237    i._ZN5SHELL8DictInitEv  shell.o
    0x0800bbbc   0x0000001e   Code   RO         1238    i._ZN5SHELL8IsLetterEc  shell.o
    0x0800bbda   0x00000012   Code   RO         1239    i._ZN5SHELL8IsNumberEc  shell.o
    0x0800bbec   0x00000082   Code   RO         1240    i._ZN5SHELL9GetNumberEPcRj  shell.o
    0x0800bc6e   0x00000002   PAD
    0x0800bc70   0x0000007c   Code   RO          588    i._ZN5TCONI18GetStatusBasePlaneEv  tconi.o
    0x0800bcec   0x0000007c   Code   RO          589    i._ZN5TCONI18GetStatusExtruderAEv  tconi.o
    0x0800bd68   0x0000007c   Code   RO          590    i._ZN5TCONI18GetStatusExtruderBEv  tconi.o
    0x0800bde4   0x00000090   Code   RO          591    i._ZN5TCONI23GetCoolerPowerExtruderAEv  tconi.o
    0x0800be74   0x00000090   Code   RO          592    i._ZN5TCONI23GetCoolerPowerExtruderBEv  tconi.o
    0x0800bf04   0x00000090   Code   RO          593    i._ZN5TCONI23GetHeaterPowerBasePlaneEv  tconi.o
    0x0800bf94   0x00000090   Code   RO          594    i._ZN5TCONI23GetHeaterPowerExtruderAEv  tconi.o
    0x0800c024   0x00000090   Code   RO          595    i._ZN5TCONI23GetHeaterPowerExtruderBEv  tconi.o
    0x0800c0b4   0x00000090   Code   RO          596    i._ZN5TCONI23GetTemperatureBPSettingEv  tconi.o
    0x0800c144   0x00000090   Code   RO          597    i._ZN5TCONI23GetTemperatureBasePlaneEv  tconi.o
    0x0800c1d4   0x00000090   Code   RO          598    i._ZN5TCONI23GetTemperatureEASettingEv  tconi.o
    0x0800c264   0x00000090   Code   RO          599    i._ZN5TCONI23GetTemperatureEBSettingEv  tconi.o
    0x0800c2f4   0x00000090   Code   RO          600    i._ZN5TCONI23GetTemperatureExtruderAEv  tconi.o
    0x0800c384   0x00000090   Code   RO          601    i._ZN5TCONI23GetTemperatureExtruderBEv  tconi.o
    0x0800c414   0x000000b0   Code   RO          602    i._ZN5TCONI23SetCoolerPowerExtruderAEh  tconi.o
    0x0800c4c4   0x000000b0   Code   RO          603    i._ZN5TCONI23SetCoolerPowerExtruderBEh  tconi.o
    0x0800c574   0x000000cc   Code   RO          604    i._ZN5TCONI23SetTemperatureBPSettingEt  tconi.o
    0x0800c640   0x000000d0   Code   RO          605    i._ZN5TCONI23SetTemperatureEASettingEt  tconi.o
    0x0800c710   0x000000d0   Code   RO          606    i._ZN5TCONI23SetTemperatureEBSettingEt  tconi.o
    0x0800c7e0   0x00000090   Code   RO          607    i._ZN5TCONI25GetTemperatureEnvironmentEv  tconi.o
    0x0800c870   0x000000f8   Code   RO          608    i._ZN5TCONI7Chr2FloEPcjjb  tconi.o
    0x0800c968   0x0000010c   Code   RO          609    i._ZN5TCONI7Flo2ChrEPcdjjb  tconi.o
    0x0800ca74   0x00000074   Code   RO          610    i._ZN5TCONI8TestLinkEv  tconi.o
    0x0800cae8   0x0000004c   Code   RO         1703    i._ZN7RTCLOCK11IIC_WaitAckEv  rtclock.o
    0x0800cb34   0x00000040   Code   RO         1704    i._ZN7RTCLOCK11WriteEnableEv  rtclock.o
    0x0800cb74   0x0000005c   Code   RO         1705    i._ZN7RTCLOCK12IIC_ReadByteEb  rtclock.o
    0x0800cbd0   0x0000005a   Code   RO         1706    i._ZN7RTCLOCK12IIC_SendByteEh  rtclock.o
    0x0800cc2a   0x00000040   Code   RO         1707    i._ZN7RTCLOCK12WriteDisableEv  rtclock.o
    0x0800cc6a   0x00000002   PAD
    0x0800cc6c   0x00000050   Code   RO         1708    i._ZN7RTCLOCK4InitEv  rtclock.o
    0x0800ccbc   0x0000003c   Code   RO         1709    i._ZN7RTCLOCK4ReadERhh  rtclock.o
    0x0800ccf8   0x00000054   Code   RO         1710    i._ZN7RTCLOCK5WriteEhh  rtclock.o
    0x0800cd4c   0x0000002a   Code   RO         1711    i._ZN7RTCLOCK7DelayUsEh  rtclock.o
    0x0800cd76   0x00000002   PAD
    0x0800cd78   0x00000188   Code   RO         1712    i._ZN7RTCLOCK7GetTimeEv  rtclock.o
    0x0800cf00   0x0000002e   Code   RO         1713    i._ZN7RTCLOCK7IIC_AckEv  rtclock.o
    0x0800cf2e   0x00000012   Code   RO         1715    i._ZN7RTCLOCK8IIC_InitEv  rtclock.o
    0x0800cf40   0x0000002e   Code   RO         1716    i._ZN7RTCLOCK8IIC_NAckEv  rtclock.o
    0x0800cf6e   0x0000002e   Code   RO         1717    i._ZN7RTCLOCK8IIC_StopEv  rtclock.o
    0x0800cf9c   0x00000050   Code   RO         1718    i._ZN7RTCLOCK8ReadDataEh  rtclock.o
    0x0800cfec   0x0000002e   Code   RO         1719    i._ZN7RTCLOCK9IIC_StartEv  rtclock.o
    0x0800d01a   0x00000040   Code   RO         1720    i._ZN7RTCLOCK9WriteDataEhh  rtclock.o
    0x0800d05a   0x00000002   PAD
    0x0800d05c   0x00000020   Code   RO           94    i._ZN8AUTOMATE10ClickCountEv  automate.o
    0x0800d07c   0x00000034   Code   RO           96    i._ZN8AUTOMATE13AUX1GetStatusEv  automate.o
    0x0800d0b0   0x00000084   Code   RO           97    i._ZN8AUTOMATE13FCONGetStatusEv  automate.o
    0x0800d134   0x0000008c   Code   RO           98    i._ZN8AUTOMATE13SCONGetStatusEv  automate.o
    0x0800d1c0   0x00000084   Code   RO           99    i._ZN8AUTOMATE13TCONGetStatusEv  automate.o
    0x0800d244   0x00000034   Code   RO          100    i._ZN8AUTOMATE15InfoLCDRefreashEv  automate.o
    0x0800d278   0x00000010   Code   RO          101    i._ZN8AUTOMATE16InterpreterRoundEv  automate.o
    0x0800d288   0x0000036c   Code   RO          102    i._ZN8AUTOMATE16StatusBarRefreshEv  automate.o
    0x0800d5f4   0x0000003c   Code   RO          103    i._ZN8AUTOMATE17ConsoleGetCommandEv  automate.o
    0x0800d630   0x00000018   Code   RO          104    i._ZN8AUTOMATE17RTCGetStatusCountEv  automate.o
    0x0800d648   0x00000018   Code   RO          105    i._ZN8AUTOMATE18AUX1GetStatusCountEv  automate.o
    0x0800d660   0x00000016   Code   RO          106    i._ZN8AUTOMATE18FCONGetStatusCountEv  automate.o
    0x0800d676   0x00000016   Code   RO          107    i._ZN8AUTOMATE18SCONGetStatusCountEv  automate.o
    0x0800d68c   0x00000016   Code   RO          108    i._ZN8AUTOMATE18TCONGetStatusCountEv  automate.o
    0x0800d6a2   0x00000016   Code   RO          109    i._ZN8AUTOMATE20InfoLCDRefreashCountEv  automate.o
    0x0800d6b8   0x00000018   Code   RO          110    i._ZN8AUTOMATE21InterpreterRoundCountEv  automate.o
    0x0800d6d0   0x00000018   Code   RO          111    i._ZN8AUTOMATE22ConsoleGetCommandCountEv  automate.o
    0x0800d6e8   0x00000074   Code   RO          112    i._ZN8AUTOMATE4InitEv  automate.o
    0x0800d75c   0x000000a6   Code   RO          113    i._ZN8AUTOMATE8CheckingEh  automate.o
    0x0800d802   0x00000002   PAD
    0x0800d804   0x00000080   Code   RO            5    i.main              main.o
    0x0800d884   0x00000062   Code   RO         1945    x$fpl$d2f           fz_ws.l(d2f.o)
    0x0800d8e6   0x00000002   PAD
    0x0800d8e8   0x00000150   Code   RO         1947    x$fpl$dadd          fz_ws.l(daddsub_clz.o)
    0x0800da38   0x00000018   Code   RO         1996    x$fpl$dcmpinf       fz_ws.l(dcmpi.o)
    0x0800da50   0x000002b0   Code   RO         1954    x$fpl$ddiv          fz_ws.l(ddiv.o)
    0x0800dd00   0x0000005a   Code   RO         1961    x$fpl$dfixu         fz_ws.l(dfixu.o)
    0x0800dd5a   0x0000002e   Code   RO         1966    x$fpl$dflt          fz_ws.l(dflt_clz.o)
    0x0800dd88   0x000000a2   Code   RO         1971    x$fpl$dfltll        fz_ws.l(dfltll_clz.o)
    0x0800de2a   0x00000026   Code   RO         1965    x$fpl$dfltu         fz_ws.l(dflt_clz.o)
    0x0800de50   0x00000078   Code   RO         1975    x$fpl$dleqf         fz_ws.l(dleqf.o)
    0x0800dec8   0x00000154   Code   RO         1977    x$fpl$dmul          fz_ws.l(dmul.o)
    0x0800e01c   0x0000009c   Code   RO         1998    x$fpl$dnaninf       fz_ws.l(dnaninf.o)
    0x0800e0b8   0x0000000c   Code   RO         2000    x$fpl$dretinf       fz_ws.l(dretinf.o)
    0x0800e0c4   0x0000006c   Code   RO         1979    x$fpl$drleqf        fz_ws.l(drleqf.o)
    0x0800e130   0x000001d4   Code   RO         1949    x$fpl$dsub          fz_ws.l(daddsub_clz.o)
    0x0800e304   0x00000056   Code   RO         1981    x$fpl$f2d           fz_ws.l(f2d.o)
    0x0800e35a   0x00000018   Code   RO         2002    x$fpl$fcmpinf       fz_ws.l(fcmpi.o)
    0x0800e372   0x00000002   PAD
    0x0800e374   0x00000184   Code   RO         1984    x$fpl$fdiv          fz_ws.l(fdiv.o)
    0x0800e4f8   0x00000068   Code   RO         1987    x$fpl$fleqf         fz_ws.l(fleqf.o)
    0x0800e560   0x0000008c   Code   RO         2004    x$fpl$fnaninf       fz_ws.l(fnaninf.o)
    0x0800e5ec   0x0000000a   Code   RO         2006    x$fpl$fretinf       fz_ws.l(fretinf.o)
    0x0800e5f6   0x00000062   Code   RO         1989    x$fpl$frleqf        fz_ws.l(frleqf.o)
    0x0800e658   0x000000c2   Code   RO         1957    x$fpl$llsfromd      fz_ws.l(dfixll.o)
    0x0800e71a   0x00000000   Code   RO         2008    x$fpl$usenofp       fz_ws.l(usenofp.o)
    0x0800e71a   0x00000006   PAD
    0x0800e720   0x000000b0   Data   RO          867    .constdata          fconi.o
    0x0800e7d0   0x00000010   Data   RO         1004    .constdata          cconi.o
    0x0800e7e0   0x00000020   Data   RO         2167    Region$$Table       anon$$obj.o


    Execution Region RW_IRAM1 (Base: 0x20000000, Size: 0x00002c60, Max: 0x00005000, ABSOLUTE, COMPRESSED[0x000000d4])

    Base Addr    Size         Type   Attr      Idx    E Section Name        Object

    0x20000000   0x00000004   Data   RW          136    .data               automate.o
    0x20000004   0x00000004   PAD
    0x20000008   0x000000c8   Data   RW          416    .data               sconi.o
    0x200000d0   0x000000c8   Data   RW          634    .data               tconi.o
    0x20000198   0x00000001   Data   RW          868    .data               fconi.o
    0x20000199   0x00000007   PAD
    0x200001a0   0x000000c8   Data   RW         1005    .data               cconi.o
    0x20000268   0x00000001   Data   RW         1160    .data               auxio.o
    0x20000269   0x00000007   PAD
    0x20000270   0x00000060   Data   RW         1255    .data               shell.o
    0x200002d0   0x00000068   Data   RW         1404    .data               instruction.o
    0x20000338   0x00000118   Data   RW         1603    .data               interpreter.o
    0x20000450   0x00000001   Data   RW         1739    .data               rtclock.o
    0x20000451   0x00000003   PAD
    0x20000454   0x00000044   Zero   RW          135    .bss                automate.o
    0x20000498   0x00000104   Zero   RW          285    .bss                cbus.o
    0x2000059c   0x00000202   Zero   RW          766    .bss                ibus.o
    0x2000079e   0x00000204   Zero   RW         1093    .bss                abus.o
    0x200009a2   0x00000006   PAD
    0x200009a8   0x00000120   Zero   RW         1204    .bss                status.o
    0x20000ac8   0x00000d08   Zero   RW         1254    .bss                shell.o
    0x200017d0   0x00000082   Zero   RW         1403    .bss                instruction.o
    0x20001852   0x00000006   PAD
    0x20001858   0x00000da8   Zero   RW         1602    .bss                interpreter.o
    0x20002600   0x00000060   Zero   RW         2041    .bss                c_w.l(libspace.o)
    0x20002660   0x00000200   Zero   RW         1856    HEAP                startup_stm32f10x_md.o
    0x20002860   0x00000400   Zero   RW         1855    STACK               startup_stm32f10x_md.o


==============================================================================

Image component sizes


      Code (inc. data)   RO Data    RW Data    ZI Data      Debug   Object Name

       672         44          0          0        516       4815   abus.o
      2046        118          0          4         68      10497   automate.o
       696         86          0          1          0       3892   auxio.o
       658         44          0          0        260       4815   cbus.o
      1796         86         16        200          0       9012   cconi.o
      3288        204        176          1          0      15560   fconi.o
       660         40          0          0        514       4815   ibus.o
     15196       7398          0        104        130      23947   instruction.o
     15508        172          0        280       3496      20646   interpreter.o
       180         42          0          0          0     206970   main.o
      1494         32          0          1          0      11519   rtclock.o
      5388        386          0        200          0      24716   sconi.o
      2644        934          0         96       3336       9076   shell.o
        64         26        236          0       1536        792   startup_stm32f10x_md.o
         0          0          0          0        288       1781   status.o
       328         28          0          0          0       6385   system_stm32f10x.o
      3704        234          0        200          0      17404   tconi.o

    ----------------------------------------------------------------------
     54354       9874        460       1108      10156     376642   Object Totals
         0          0         32          0          0          0   (incl. Generated)
        32          0          0         21         12          0   (incl. Padding)

    ----------------------------------------------------------------------

      Code (inc. data)   RO Data    RW Data    ZI Data      Debug   Library Member Name

       100          0          0          0          0          0   __dclz77c.o
         8          0          0          0          0         68   __main.o
         0          0          0          0          0          0   __rtentry.o
        12          0          0          0          0          0   __rtentry2.o
         6          0          0          0          0          0   __rtentry4.o
        52          8          0          0          0          0   __scatter.o
        28          0          0          0          0          0   __scatter_zi.o
        18          0          0          0          0         80   exit.o
         6          0          0          0          0        152   heapauxi.o
         0          0          0          0          0          0   indicate_semi.o
         2          0          0          0          0          0   libinit.o
         2          0          0          0          0          0   libinit2.o
         2          0          0          0          0          0   libshutdown.o
         2          0          0          0          0          0   libshutdown2.o
         8          4          0          0         96         68   libspace.o
        72          0          0          0          0         76   llsdiv.o
       238          0          0          0          0        100   lludivv7m.o
        78          0          0          0          0         80   rt_memclr_w.o
       100          0          0          0          0         80   rt_memcpy_w.o
         2          0          0          0          0          0   rtexit.o
        10          0          0          0          0          0   rtexit2.o
        12          4          0          0          0         68   sys_exit.o
        74          0          0          0          0         80   sys_stackheap_outer.o
         2          0          0          0          0         68   use_no_semi.o
        98          4          0          0          0         92   d2f.o
       804         16          0          0          0        272   daddsub_clz.o
        24          0          0          0          0         68   dcmpi.o
       688        140          0          0          0        208   ddiv.o
       194          4          0          0          0        116   dfixll.o
        90          4          0          0          0         92   dfixu.o
        84          0          0          0          0        136   dflt_clz.o
       162          0          0          0          0         84   dfltll_clz.o
       120          4          0          0          0         92   dleqf.o
       340         12          0          0          0        104   dmul.o
       156          4          0          0          0         92   dnaninf.o
        12          0          0          0          0         68   dretinf.o
       108          0          0          0          0         80   drleqf.o
        86          4          0          0          0         84   f2d.o
        24          0          0          0          0         68   fcmpi.o
       388         76          0          0          0         96   fdiv.o
       104          4          0          0          0         84   fleqf.o
       140          4          0          0          0         84   fnaninf.o
        10          0          0          0          0         68   fretinf.o
        98          0          0          0          0         68   frleqf.o
         0          0          0          0          0          0   usenofp.o

    ----------------------------------------------------------------------
      4578        292          0          0         96       2976   Library Totals
        14          0          0          0          0          0   (incl. Padding)

    ----------------------------------------------------------------------

      Code (inc. data)   RO Data    RW Data    ZI Data      Debug   Library Name

       834         16          0          0         96        920   c_w.l
      3730        276          0          0          0       2056   fz_ws.l

    ----------------------------------------------------------------------
      4578        292          0          0         96       2976   Library Totals

    ----------------------------------------------------------------------

==============================================================================


      Code (inc. data)   RO Data    RW Data    ZI Data      Debug   

     58932      10166        460       1108      10252     366718   Grand Totals
     58932      10166        460        212      10252     366718   ELF Image Totals (compressed)
     58932      10166        460        212          0          0   ROM Totals

==============================================================================

    Total RO  Size (Code + RO Data)                59392 (  58.00kB)
    Total RW  Size (RW Data + ZI Data)             11360 (  11.09kB)
    Total ROM Size (Code + RO Data + RW Data)      59604 (  58.21kB)

==============================================================================

